libYARP_dev.so.1 libyarp-dev1 #MINVER#
 _ZN4yarp3dev10DevicePipe13updateServiceEv@Base 2.3.70.1
 _ZN4yarp3dev10DevicePipe4openEPKcRNS0_10PolyDriverERNS_2os10SearchableES3_@Base 2.3.70.1
 _ZN4yarp3dev10DevicePipe4openERNS_2os10SearchableE@Base 2.3.70.1
 _ZN4yarp3dev10DevicePipe5closeEv@Base 2.3.70.1
 _ZN4yarp3dev10PolyDriver10getCommentEPKc@Base 2.3.70.1
 _ZN4yarp3dev10PolyDriver10getOptionsEv@Base 2.3.70.1
 _ZN4yarp3dev10PolyDriver15getDefaultValueEPKc@Base 2.3.70.1
 _ZN4yarp3dev10PolyDriver4giveEPNS0_12DeviceDriverEb@Base 2.3.70.1
 _ZN4yarp3dev10PolyDriver4linkERS1_@Base 2.3.70.1
 _ZN4yarp3dev10PolyDriver4openERKNS_2os11ConstStringE@Base 2.3.70.1
 _ZN4yarp3dev10PolyDriver4openERNS_2os10SearchableE@Base 2.3.70.1
 _ZN4yarp3dev10PolyDriver4takeEv@Base 2.3.70.1
 _ZN4yarp3dev10PolyDriver8coreOpenERNS_2os10SearchableE@Base 2.3.70.1
 _ZN4yarp3dev10PolyDriver8getValueEPKc@Base 2.3.70.1
 _ZN4yarp3dev10PolyDriver9closeMainEv@Base 2.3.70.1
 _ZN4yarp3dev10PolyDriverD0Ev@Base 2.3.70.1
 _ZN4yarp3dev10PolyDriverD1Ev@Base 2.3.70.1
 _ZN4yarp3dev10PolyDriverD2Ev@Base 2.3.70.1
 _ZN4yarp3dev11DeviceGroup12startServiceEv@Base 2.3.70.1
 _ZN4yarp3dev11DeviceGroup13updateServiceEv@Base 2.3.70.1
 _ZN4yarp3dev11DeviceGroup4openEPKcRNS0_10PolyDriverERNS_2os10SearchableES3_@Base 2.3.70.1
 _ZN4yarp3dev11DeviceGroup4openERNS_2os10SearchableE@Base 2.3.70.1
 _ZN4yarp3dev11DeviceGroup9closeMainEv@Base 2.3.70.1
 _ZN4yarp3dev11DeviceGroupD0Ev@Base 2.3.70.1
 _ZN4yarp3dev11DeviceGroupD1Ev@Base 2.3.70.1
 _ZN4yarp3dev11DeviceGroupD2Ev@Base 2.3.70.1
 _ZN4yarp3dev12ServerSerial11receiveCharERc@Base 2.3.70.1
 _ZN4yarp3dev12ServerSerial11receiveLineEPci@Base 2.3.70.1
 _ZN4yarp3dev12ServerSerial12receiveBytesEPhi@Base 2.3.70.1
 _ZN4yarp3dev12ServerSerial3runEv@Base 2.3.70.1
 _ZN4yarp3dev12ServerSerial4openERNS_2os10SearchableE@Base 2.3.70.1
 _ZN4yarp3dev12ServerSerial4openEv@Base 2.3.70.1
 _ZN4yarp3dev12ServerSerial4sendEPcm@Base 2.3.70.1
 _ZN4yarp3dev12ServerSerial4sendERKNS_2os6BottleE@Base 2.3.70.1
 _ZN4yarp3dev12ServerSerial5closeEv@Base 2.3.70.1
 _ZN4yarp3dev12ServerSerial5flushEv@Base 2.3.70.1
 _ZN4yarp3dev12ServerSerial6setDTREb@Base 2.3.70.1
 _ZN4yarp3dev12ServerSerial7receiveERNS_2os6BottleE@Base 2.3.70.1
 _ZN4yarp3dev12ServerSerialC1Ev@Base 2.3.70.1
 _ZN4yarp3dev12ServerSerialC2Ev@Base 2.3.70.1
 _ZN4yarp3dev12ServerSerialD0Ev@Base 2.3.70.1
 _ZN4yarp3dev12ServerSerialD1Ev@Base 2.3.70.1
 _ZN4yarp3dev12ServerSerialD2Ev@Base 2.3.70.1
 _ZN4yarp3dev13ServerGrabber10fromConfigERNS_2os10SearchableE@Base 2.3.70.1
 _ZN4yarp3dev13ServerGrabber10stopThreadEv@Base 2.3.70.1
 _ZN4yarp3dev13ServerGrabber10threadInitEv@Base 2.3.70.1
 _ZN4yarp3dev13ServerGrabber13threadReleaseEv@Base 2.3.70.1
 _ZN4yarp3dev13ServerGrabber14setupFlexImageERKNS_3sig5ImageERNS2_9FlexImageE@Base 2.3.70.1
 _ZN4yarp3dev13ServerGrabber15initialize_YARPERNS_2os10SearchableE@Base 2.3.70.1
 _ZN4yarp3dev13ServerGrabber17shallowCopyImagesERKNS_3sig9FlexImageERS3_@Base 2.3.70.1
 _ZN4yarp3dev13ServerGrabber18openDeferredAttachERNS_2os10SearchableE@Base 2.3.70.1
 _ZN4yarp3dev13ServerGrabber22openAndAttachSubDeviceERNS_2os10SearchableE@Base 2.3.70.1
 _ZN4yarp3dev13ServerGrabber3runEv@Base 2.3.70.1
 _ZN4yarp3dev13ServerGrabber4openERNS_2os10SearchableE@Base 2.3.70.1
 _ZN4yarp3dev13ServerGrabber5closeEv@Base 2.3.70.1
 _ZN4yarp3dev13ServerGrabber5splitERKNS_3sig5ImageERS3_S6_@Base 2.3.70.1
 _ZN4yarp3dev13ServerGrabber6attachEPNS0_10PolyDriverE@Base 2.3.70.1
 _ZN4yarp3dev13ServerGrabber6detachEv@Base 2.3.70.1
 _ZN4yarp3dev13ServerGrabber6stitchERNS_3sig9FlexImageERKNS2_5ImageES7_@Base 2.3.70.1
 _ZN4yarp3dev13ServerGrabber7cleanUpEv@Base 2.3.70.1
 _ZN4yarp3dev13ServerGrabber7respondERKNS_2os6BottleERS3_bb@Base 2.3.70.1
 _ZN4yarp3dev13ServerGrabber9attachAllERKNS0_14PolyDriverListE@Base 2.3.70.1
 _ZN4yarp3dev13ServerGrabber9detachAllEv@Base 2.3.70.1
 _ZN4yarp3dev13ServerGrabberC1Ev@Base 2.3.70.1
 _ZN4yarp3dev13ServerGrabberC2Ev@Base 2.3.70.1
 _ZN4yarp3dev13ServerGrabberD0Ev@Base 2.3.70.1
 _ZN4yarp3dev13ServerGrabberD1Ev@Base 2.3.70.1
 _ZN4yarp3dev13ServerGrabberD2Ev@Base 2.3.70.1
 _ZN4yarp3dev14ImplementMotor10initializeEiPKi@Base 2.3.70.1
 _ZN4yarp3dev14ImplementMotor12uninitializeEv@Base 2.3.70.1
 _ZN4yarp3dev14ImplementMotor14getTemperatureEiPd@Base 2.3.70.1
 _ZN4yarp3dev14ImplementMotor15getGearboxRatioEiPd@Base 2.3.70.1
 _ZN4yarp3dev14ImplementMotor15getTemperaturesEPd@Base 2.3.70.1
 _ZN4yarp3dev14ImplementMotor15setGearboxRatioEid@Base 2.3.70.1
 _ZN4yarp3dev14ImplementMotor17getNumberOfMotorsEPi@Base 2.3.70.1
 _ZN4yarp3dev14ImplementMotor19getTemperatureLimitEiPd@Base 2.3.70.1
 _ZN4yarp3dev14ImplementMotor19setTemperatureLimitEid@Base 2.3.70.1
 _ZN4yarp3dev14ImplementMotorC1EPNS0_9IMotorRawE@Base 2.3.70.1
 _ZN4yarp3dev14ImplementMotorC2EPNS0_9IMotorRawE@Base 2.3.70.1
 _ZN4yarp3dev14ImplementMotorD0Ev@Base 2.3.70.1
 _ZN4yarp3dev14ImplementMotorD1Ev@Base 2.3.70.1
 _ZN4yarp3dev14ImplementMotorD2Ev@Base 2.3.70.1
 _ZN4yarp3dev14PolyDriverList4pushEPNS0_10PolyDriverEPKc@Base 2.3.70.1
 _ZN4yarp3dev14PolyDriverList4pushERNS0_20PolyDriverDescriptorE@Base 2.3.70.1
 _ZN4yarp3dev14PolyDriverListC1Ev@Base 2.3.70.1
 _ZN4yarp3dev14PolyDriverListC2Ev@Base 2.3.70.1
 _ZN4yarp3dev14PolyDriverListD1Ev@Base 2.3.70.1
 _ZN4yarp3dev14PolyDriverListD2Ev@Base 2.3.70.1
 _ZN4yarp3dev14PolyDriverListaSERKS1_@Base 2.3.70.1
 _ZN4yarp3dev14PolyDriverListixEi@Base 2.3.70.1
 _ZN4yarp3dev15DeviceResponder4readERNS_2os16ConnectionReaderE@Base 2.3.70.1
 _ZN4yarp3dev15DeviceResponder7respondERKNS_2os6BottleERS3_@Base 2.3.70.1
 _ZN4yarp3dev15DeviceResponder8addUsageEPKcS3_@Base 2.3.70.1
 _ZN4yarp3dev15DeviceResponder8addUsageERKNS_2os6BottleEPKc@Base 2.3.70.1
 _ZN4yarp3dev15DeviceResponder9makeUsageEv@Base 2.3.70.1
 _ZN4yarp3dev15DeviceResponderC1Ev@Base 2.3.70.1
 _ZN4yarp3dev15DeviceResponderC2Ev@Base 2.3.70.1
 _ZN4yarp3dev17IJoypadController12parseActionsERKNS_2os10SearchableEPi@Base 2.3.70.1
 _ZN4yarp3dev17IJoypadController13executeActionEi@Base 2.3.70.1
 _ZN4yarp3dev17IRemoteCalibrator19getCalibratorDeviceEv@Base 2.3.70.1
 _ZN4yarp3dev17IRemoteCalibrator19setCalibratorDeviceEPS1_@Base 2.3.70.1
 _ZN4yarp3dev17IRemoteCalibrator23releaseCalibratorDeviceEv@Base 2.3.70.1
 _ZN4yarp3dev17IRemoteCalibrator25isCalibratorDevicePresentEPb@Base 2.3.70.1
 _ZN4yarp3dev17IRemoteCalibratorC1Ev@Base 2.3.70.1
 _ZN4yarp3dev17IRemoteCalibratorC2Ev@Base 2.3.70.1
 _ZN4yarp3dev17ImplementAxisInfo10initializeEiPKi@Base 2.3.70.1
 _ZN4yarp3dev17ImplementAxisInfo11getAxisNameEiRNS_2os11ConstStringE@Base 2.3.70.1
 _ZN4yarp3dev17ImplementAxisInfo12getJointTypeEiRNS0_13JointTypeEnumE@Base 2.3.70.1
 _ZN4yarp3dev17ImplementAxisInfo12uninitializeEv@Base 2.3.70.1
 _ZN4yarp3dev17ImplementAxisInfoC1EPNS0_12IAxisInfoRawE@Base 2.3.70.1
 _ZN4yarp3dev17ImplementAxisInfoC2EPNS0_12IAxisInfoRawE@Base 2.3.70.1
 _ZN4yarp3dev17ImplementAxisInfoD0Ev@Base 2.3.70.1
 _ZN4yarp3dev17ImplementAxisInfoD1Ev@Base 2.3.70.1
 _ZN4yarp3dev17ImplementAxisInfoD2Ev@Base 2.3.70.1
 _ZN4yarp3dev17StubDriverCreator6createEv@Base 2.3.70.1
 _ZN4yarp3dev18ServerFrameGrabber10getShutterEv@Base 2.3.70.1
 _ZN4yarp3dev18ServerFrameGrabber10setShutterEd@Base 2.3.70.1
 _ZN4yarp3dev18ServerFrameGrabber11getExposureEv@Base 2.3.70.1
 _ZN4yarp3dev18ServerFrameGrabber11setExposureEd@Base 2.3.70.1
 _ZN4yarp3dev18ServerFrameGrabber11stopServiceEv@Base 2.3.70.1
 _ZN4yarp3dev18ServerFrameGrabber12getSharpnessEv@Base 2.3.70.1
 _ZN4yarp3dev18ServerFrameGrabber12setSharpnessEd@Base 2.3.70.1
 _ZN4yarp3dev18ServerFrameGrabber12startServiceEv@Base 2.3.70.1
 _ZN4yarp3dev18ServerFrameGrabber13getBrightnessEv@Base 2.3.70.1
 _ZN4yarp3dev18ServerFrameGrabber13getSaturationEv@Base 2.3.70.1
 _ZN4yarp3dev18ServerFrameGrabber13setBrightnessEd@Base 2.3.70.1
 _ZN4yarp3dev18ServerFrameGrabber13setSaturationEd@Base 2.3.70.1
 _ZN4yarp3dev18ServerFrameGrabber13stopRecordingEv@Base 2.3.70.1
 _ZN4yarp3dev18ServerFrameGrabber13updateServiceEv@Base 2.3.70.1
 _ZN4yarp3dev18ServerFrameGrabber14getAudioVisualERNS_3sig7ImageOfINS2_8PixelRgbEEERNS2_5SoundE@Base 2.3.70.1
 _ZN4yarp3dev18ServerFrameGrabber14startRecordingEv@Base 2.3.70.1
 _ZN4yarp3dev18ServerFrameGrabber15getWhiteBalanceERdS2_@Base 2.3.70.1
 _ZN4yarp3dev18ServerFrameGrabber15setWhiteBalanceEdd@Base 2.3.70.1
 _ZN4yarp3dev18ServerFrameGrabber4openERNS_2os10SearchableE@Base 2.3.70.1
 _ZN4yarp3dev18ServerFrameGrabber5closeEv@Base 2.3.70.1
 _ZN4yarp3dev18ServerFrameGrabber6getHueEv@Base 2.3.70.1
 _ZN4yarp3dev18ServerFrameGrabber6setHueEd@Base 2.3.70.1
 _ZN4yarp3dev18ServerFrameGrabber7getGainEv@Base 2.3.70.1
 _ZN4yarp3dev18ServerFrameGrabber7getIrisEv@Base 2.3.70.1
 _ZN4yarp3dev18ServerFrameGrabber7respondERKNS_2os6BottleERS3_@Base 2.3.70.1
 _ZN4yarp3dev18ServerFrameGrabber7setGainEd@Base 2.3.70.1
 _ZN4yarp3dev18ServerFrameGrabber7setIrisEd@Base 2.3.70.1
 _ZN4yarp3dev18ServerFrameGrabber8getDatumERNS_2os12PortablePairINS_3sig7ImageOfINS4_8PixelRgbEEENS4_5SoundEEE@Base 2.3.70.1
 _ZN4yarp3dev18ServerFrameGrabber8getDatumERNS_3sig5SoundE@Base 2.3.70.1
 _ZN4yarp3dev18ServerFrameGrabber8getDatumERNS_3sig7ImageOfINS2_8PixelRgbEEE@Base 2.3.70.1
 _ZN4yarp3dev18ServerFrameGrabber8getDatumERNS_3sig7ImageOfINS2_8PixelRgbEEERNS2_5SoundE@Base 2.3.70.1
 _ZN4yarp3dev18ServerFrameGrabber8getDatumERNS_3sig7ImageOfIhEE@Base 2.3.70.1
 _ZN4yarp3dev18ServerFrameGrabber8getGammaEv@Base 2.3.70.1
 _ZN4yarp3dev18ServerFrameGrabber8getImageERNS_3sig7ImageOfINS2_8PixelRgbEEE@Base 2.3.70.1
 _ZN4yarp3dev18ServerFrameGrabber8getImageERNS_3sig7ImageOfIhEE@Base 2.3.70.1
 _ZN4yarp3dev18ServerFrameGrabber8getSoundERNS_3sig5SoundE@Base 2.3.70.1
 _ZN4yarp3dev18ServerFrameGrabber8setGammaEd@Base 2.3.70.1
 _ZN4yarp3dev18ServerFrameGrabberC1Ev@Base 2.3.70.1
 _ZN4yarp3dev18ServerFrameGrabberC2Ev@Base 2.3.70.1
 _ZN4yarp3dev19IControlCalibration13setCalibratorEPNS0_11ICalibratorE@Base 2.3.70.1
 _ZN4yarp3dev19IControlCalibration4parkEb@Base 2.3.70.1
 _ZN4yarp3dev19IControlCalibration9calibrateEv@Base 2.3.70.1
 _ZN4yarp3dev19IControlCalibrationC1Ev@Base 2.3.70.1
 _ZN4yarp3dev19IControlCalibrationC2Ev@Base 2.3.70.1
 _ZN4yarp3dev19ImplementPWMControl10initializeEiPKiPKd@Base 2.3.70.1
 _ZN4yarp3dev19ImplementPWMControl12getDutyCycleEiPd@Base 2.3.70.1
 _ZN4yarp3dev19ImplementPWMControl12uninitializeEv@Base 2.3.70.1
 _ZN4yarp3dev19ImplementPWMControl13getDutyCyclesEPd@Base 2.3.70.1
 _ZN4yarp3dev19ImplementPWMControl15getRefDutyCycleEiPd@Base 2.3.70.1
 _ZN4yarp3dev19ImplementPWMControl15setRefDutyCycleEid@Base 2.3.70.1
 _ZN4yarp3dev19ImplementPWMControl16getRefDutyCyclesEPd@Base 2.3.70.1
 _ZN4yarp3dev19ImplementPWMControl16setRefDutyCyclesEPKd@Base 2.3.70.1
 _ZN4yarp3dev19ImplementPWMControl17getNumberOfMotorsEPi@Base 2.3.70.1
 _ZN4yarp3dev19ImplementPWMControlC1EPNS0_14IPWMControlRawE@Base 2.3.70.1
 _ZN4yarp3dev19ImplementPWMControlC2EPNS0_14IPWMControlRawE@Base 2.3.70.1
 _ZN4yarp3dev19ImplementPWMControlD0Ev@Base 2.3.70.1
 _ZN4yarp3dev19ImplementPWMControlD1Ev@Base 2.3.70.1
 _ZN4yarp3dev19ImplementPWMControlD2Ev@Base 2.3.70.1
 _ZN4yarp3dev19ImplementPidControl10disablePidERKNS0_18PidControlTypeEnumEi@Base 2.3.70.1
 _ZN4yarp3dev19ImplementPidControl10initializeEiPKiPKdS5_S5_S5_@Base 2.3.70.1
 _ZN4yarp3dev19ImplementPidControl11getPidErrorERKNS0_18PidControlTypeEnumEiPd@Base 2.3.70.1
 _ZN4yarp3dev19ImplementPidControl12getPidErrorsERKNS0_18PidControlTypeEnumEPd@Base 2.3.70.1
 _ZN4yarp3dev19ImplementPidControl12getPidOutputERKNS0_18PidControlTypeEnumEiPd@Base 2.3.70.1
 _ZN4yarp3dev19ImplementPidControl12isPidEnabledERKNS0_18PidControlTypeEnumEiPb@Base 2.3.70.1
 _ZN4yarp3dev19ImplementPidControl12setPidOffsetERKNS0_18PidControlTypeEnumEid@Base 2.3.70.1
 _ZN4yarp3dev19ImplementPidControl12uninitializeEv@Base 2.3.70.1
 _ZN4yarp3dev19ImplementPidControl13getPidOutputsERKNS0_18PidControlTypeEnumEPd@Base 2.3.70.1
 _ZN4yarp3dev19ImplementPidControl15getPidReferenceERKNS0_18PidControlTypeEnumEiPd@Base 2.3.70.1
 _ZN4yarp3dev19ImplementPidControl15setPidReferenceERKNS0_18PidControlTypeEnumEid@Base 2.3.70.1
 _ZN4yarp3dev19ImplementPidControl16getPidErrorLimitERKNS0_18PidControlTypeEnumEiPd@Base 2.3.70.1
 _ZN4yarp3dev19ImplementPidControl16getPidReferencesERKNS0_18PidControlTypeEnumEPd@Base 2.3.70.1
 _ZN4yarp3dev19ImplementPidControl16setPidErrorLimitERKNS0_18PidControlTypeEnumEid@Base 2.3.70.1
 _ZN4yarp3dev19ImplementPidControl16setPidReferencesERKNS0_18PidControlTypeEnumEPKd@Base 2.3.70.1
 _ZN4yarp3dev19ImplementPidControl17getPidErrorLimitsERKNS0_18PidControlTypeEnumEPd@Base 2.3.70.1
 _ZN4yarp3dev19ImplementPidControl17setPidErrorLimitsERKNS0_18PidControlTypeEnumEPKd@Base 2.3.70.1
 _ZN4yarp3dev19ImplementPidControl21convert_units_to_userERKNS0_18PidControlTypeEnumEPKdPd@Base 2.3.70.1
 _ZN4yarp3dev19ImplementPidControl21convert_units_to_userERKNS0_18PidControlTypeEnumEdPdi@Base 2.3.70.1
 _ZN4yarp3dev19ImplementPidControl24convert_units_to_machineERKNS0_18PidControlTypeEnumEPKdPd@Base 2.3.70.1
 _ZN4yarp3dev19ImplementPidControl24convert_units_to_machineERKNS0_18PidControlTypeEnumEdiRdRi@Base 2.3.70.1
 _ZN4yarp3dev19ImplementPidControl6getPidERKNS0_18PidControlTypeEnumEiPNS0_3PidE@Base 2.3.70.1
 _ZN4yarp3dev19ImplementPidControl6setPidERKNS0_18PidControlTypeEnumEiRKNS0_3PidE@Base 2.3.70.1
 _ZN4yarp3dev19ImplementPidControl7getPidsERKNS0_18PidControlTypeEnumEPNS0_3PidE@Base 2.3.70.1
 _ZN4yarp3dev19ImplementPidControl7setPidsERKNS0_18PidControlTypeEnumEPKNS0_3PidE@Base 2.3.70.1
 _ZN4yarp3dev19ImplementPidControl8resetPidERKNS0_18PidControlTypeEnumEi@Base 2.3.70.1
 _ZN4yarp3dev19ImplementPidControl9enablePidERKNS0_18PidControlTypeEnumEi@Base 2.3.70.1
 _ZN4yarp3dev19ImplementPidControlC1EPNS0_14IPidControlRawE@Base 2.3.70.1
 _ZN4yarp3dev19ImplementPidControlC2EPNS0_14IPidControlRawE@Base 2.3.70.1
 _ZN4yarp3dev19ImplementPidControlD0Ev@Base 2.3.70.1
 _ZN4yarp3dev19ImplementPidControlD1Ev@Base 2.3.70.1
 _ZN4yarp3dev19ImplementPidControlD2Ev@Base 2.3.70.1
 _ZN4yarp3dev19StubImplEncodersRaw19NOT_YET_IMPLEMENTEDEPKc@Base 2.3.70.1
 _ZN4yarp3dev20IControlCalibration213setCalibratorEPNS0_11ICalibratorE@Base 2.3.70.1
 _ZN4yarp3dev20IControlCalibration216abortCalibrationEv@Base 2.3.70.1
 _ZN4yarp3dev20IControlCalibration24parkEb@Base 2.3.70.1
 _ZN4yarp3dev20IControlCalibration29abortParkEv@Base 2.3.70.1
 _ZN4yarp3dev20IControlCalibration29calibrateEv@Base 2.3.70.1
 _ZN4yarp3dev20IControlCalibration2C1Ev@Base 2.3.70.1
 _ZN4yarp3dev20IControlCalibration2C2Ev@Base 2.3.70.1
 _ZN4yarp3dev20ImplementControlMode10initializeEiPKi@Base 2.3.70.1
 _ZN4yarp3dev20ImplementControlMode12uninitializeEv@Base 2.3.70.1
 _ZN4yarp3dev20ImplementControlMode13setTorqueModeEi@Base 2.3.70.1
 _ZN4yarp3dev20ImplementControlMode14getControlModeEiPi@Base 2.3.70.1
 _ZN4yarp3dev20ImplementControlMode15getControlModesEPi@Base 2.3.70.1
 _ZN4yarp3dev20ImplementControlMode15setPositionModeEi@Base 2.3.70.1
 _ZN4yarp3dev20ImplementControlMode15setVelocityModeEi@Base 2.3.70.1
 _ZN4yarp3dev20ImplementControlMode24setImpedancePositionModeEi@Base 2.3.70.1
 _ZN4yarp3dev20ImplementControlMode24setImpedanceVelocityModeEi@Base 2.3.70.1
 _ZN4yarp3dev20ImplementControlModeC1EPNS0_15IControlModeRawE@Base 2.3.70.1
 _ZN4yarp3dev20ImplementControlModeC2EPNS0_15IControlModeRawE@Base 2.3.70.1
 _ZN4yarp3dev20ImplementControlModeD0Ev@Base 2.3.70.1
 _ZN4yarp3dev20ImplementControlModeD1Ev@Base 2.3.70.1
 _ZN4yarp3dev20ImplementControlModeD2Ev@Base 2.3.70.1
 _ZN4yarp3dev20LaserMeasurementData13get_cartesianERdS2_@Base 2.3.70.1
 _ZN4yarp3dev20LaserMeasurementData13set_cartesianEdd@Base 2.3.70.1
 _ZN4yarp3dev20LaserMeasurementData9get_polarERdS2_@Base 2.3.70.1
 _ZN4yarp3dev20LaserMeasurementData9set_polarEdd@Base 2.3.70.1
 _ZN4yarp3dev20LaserMeasurementDataC1Ev@Base 2.3.70.1
 _ZN4yarp3dev20LaserMeasurementDataC2Ev@Base 2.3.70.1
 _ZN4yarp3dev21ImplementControlMode210initializeEiPKi@Base 2.3.70.1
 _ZN4yarp3dev21ImplementControlMode212uninitializeEv@Base 2.3.70.1
 _ZN4yarp3dev21ImplementControlMode213setTorqueModeEi@Base 2.3.70.1
 _ZN4yarp3dev21ImplementControlMode214getControlModeEiPi@Base 2.3.70.1
 _ZN4yarp3dev21ImplementControlMode214setControlModeEii@Base 2.3.70.1
 _ZN4yarp3dev21ImplementControlMode215getControlModesEPi@Base 2.3.70.1
 _ZN4yarp3dev21ImplementControlMode215getControlModesEiPKiPi@Base 2.3.70.1
 _ZN4yarp3dev21ImplementControlMode215setControlModesEPi@Base 2.3.70.1
 _ZN4yarp3dev21ImplementControlMode215setControlModesEiPKiPi@Base 2.3.70.1
 _ZN4yarp3dev21ImplementControlMode215setPositionModeEi@Base 2.3.70.1
 _ZN4yarp3dev21ImplementControlMode215setVelocityModeEi@Base 2.3.70.1
 _ZN4yarp3dev21ImplementControlMode224setImpedancePositionModeEi@Base 2.3.70.1
 _ZN4yarp3dev21ImplementControlMode224setImpedanceVelocityModeEi@Base 2.3.70.1
 _ZN4yarp3dev21ImplementControlMode2C1EPNS0_16IControlMode2RawE@Base 2.3.70.1
 _ZN4yarp3dev21ImplementControlMode2C2EPNS0_16IControlMode2RawE@Base 2.3.70.1
 _ZN4yarp3dev21ImplementControlMode2D0Ev@Base 2.3.70.1
 _ZN4yarp3dev21ImplementControlMode2D1Ev@Base 2.3.70.1
 _ZN4yarp3dev21ImplementControlMode2D2Ev@Base 2.3.70.1
 _ZN4yarp3dev22ImplementEncodersTimed10getEncoderEiPd@Base 2.3.70.1
 _ZN4yarp3dev22ImplementEncodersTimed10initializeEiPKiPKdS5_@Base 2.3.70.1
 _ZN4yarp3dev22ImplementEncodersTimed10setEncoderEid@Base 2.3.70.1
 _ZN4yarp3dev22ImplementEncodersTimed11getEncodersEPd@Base 2.3.70.1
 _ZN4yarp3dev22ImplementEncodersTimed11setEncodersEPKd@Base 2.3.70.1
 _ZN4yarp3dev22ImplementEncodersTimed12resetEncoderEi@Base 2.3.70.1
 _ZN4yarp3dev22ImplementEncodersTimed12uninitializeEv@Base 2.3.70.1
 _ZN4yarp3dev22ImplementEncodersTimed13resetEncodersEv@Base 2.3.70.1
 _ZN4yarp3dev22ImplementEncodersTimed15getEncoderSpeedEiPd@Base 2.3.70.1
 _ZN4yarp3dev22ImplementEncodersTimed15getEncoderTimedEiPdS2_@Base 2.3.70.1
 _ZN4yarp3dev22ImplementEncodersTimed16getEncoderSpeedsEPd@Base 2.3.70.1
 _ZN4yarp3dev22ImplementEncodersTimed16getEncodersTimedEPdS2_@Base 2.3.70.1
 _ZN4yarp3dev22ImplementEncodersTimed22getEncoderAccelerationEiPd@Base 2.3.70.1
 _ZN4yarp3dev22ImplementEncodersTimed23getEncoderAccelerationsEPd@Base 2.3.70.1
 _ZN4yarp3dev22ImplementEncodersTimed7getAxesEPi@Base 2.3.70.1
 _ZN4yarp3dev22ImplementEncodersTimedC1EPNS0_17IEncodersTimedRawE@Base 2.3.70.1
 _ZN4yarp3dev22ImplementEncodersTimedC2EPNS0_17IEncodersTimedRawE@Base 2.3.70.1
 _ZN4yarp3dev22ImplementEncodersTimedD0Ev@Base 2.3.70.1
 _ZN4yarp3dev22ImplementEncodersTimedD1Ev@Base 2.3.70.1
 _ZN4yarp3dev22ImplementEncodersTimedD2Ev@Base 2.3.70.1
 _ZN4yarp3dev22ImplementMotorEncoders10initializeEiPKiPKdS5_@Base 2.3.70.1
 _ZN4yarp3dev22ImplementMotorEncoders12uninitializeEv@Base 2.3.70.1
 _ZN4yarp3dev22ImplementMotorEncoders15getMotorEncoderEiPd@Base 2.3.70.1
 _ZN4yarp3dev22ImplementMotorEncoders15setMotorEncoderEid@Base 2.3.70.1
 _ZN4yarp3dev22ImplementMotorEncoders16getMotorEncodersEPd@Base 2.3.70.1
 _ZN4yarp3dev22ImplementMotorEncoders16setMotorEncodersEPKd@Base 2.3.70.1
 _ZN4yarp3dev22ImplementMotorEncoders17resetMotorEncoderEi@Base 2.3.70.1
 _ZN4yarp3dev22ImplementMotorEncoders18resetMotorEncodersEv@Base 2.3.70.1
 _ZN4yarp3dev22ImplementMotorEncoders20getMotorEncoderSpeedEiPd@Base 2.3.70.1
 _ZN4yarp3dev22ImplementMotorEncoders20getMotorEncoderTimedEiPdS2_@Base 2.3.70.1
 _ZN4yarp3dev22ImplementMotorEncoders21getMotorEncoderSpeedsEPd@Base 2.3.70.1
 _ZN4yarp3dev22ImplementMotorEncoders21getMotorEncodersTimedEPdS2_@Base 2.3.70.1
 _ZN4yarp3dev22ImplementMotorEncoders24getNumberOfMotorEncodersEPi@Base 2.3.70.1
 _ZN4yarp3dev22ImplementMotorEncoders27getMotorEncoderAccelerationEiPd@Base 2.3.70.1
 _ZN4yarp3dev22ImplementMotorEncoders28getMotorEncoderAccelerationsEPd@Base 2.3.70.1
 _ZN4yarp3dev22ImplementMotorEncoders34getMotorEncoderCountsPerRevolutionEiPd@Base 2.3.70.1
 _ZN4yarp3dev22ImplementMotorEncoders34setMotorEncoderCountsPerRevolutionEid@Base 2.3.70.1
 _ZN4yarp3dev22ImplementMotorEncodersC1EPNS0_17IMotorEncodersRawE@Base 2.3.70.1
 _ZN4yarp3dev22ImplementMotorEncodersC2EPNS0_17IMotorEncodersRawE@Base 2.3.70.1
 _ZN4yarp3dev22ImplementMotorEncodersD0Ev@Base 2.3.70.1
 _ZN4yarp3dev22ImplementMotorEncodersD1Ev@Base 2.3.70.1
 _ZN4yarp3dev22ImplementMotorEncodersD2Ev@Base 2.3.70.1
 _ZN4yarp3dev22ImplementTorqueControl10getTorquesEPd@Base 2.3.70.1
 _ZN4yarp3dev22ImplementTorqueControl10initializeEiPKiPKdS5_S5_@Base 2.3.70.1
 _ZN4yarp3dev22ImplementTorqueControl12getBemfParamEiPd@Base 2.3.70.1
 _ZN4yarp3dev22ImplementTorqueControl12getRefTorqueEiPd@Base 2.3.70.1
 _ZN4yarp3dev22ImplementTorqueControl12setBemfParamEid@Base 2.3.70.1
 _ZN4yarp3dev22ImplementTorqueControl12setRefTorqueEid@Base 2.3.70.1
 _ZN4yarp3dev22ImplementTorqueControl12uninitializeEv@Base 2.3.70.1
 _ZN4yarp3dev22ImplementTorqueControl13getRefTorquesEPd@Base 2.3.70.1
 _ZN4yarp3dev22ImplementTorqueControl13setRefTorquesEPKd@Base 2.3.70.1
 _ZN4yarp3dev22ImplementTorqueControl13setRefTorquesEiPKiPKd@Base 2.3.70.1
 _ZN4yarp3dev22ImplementTorqueControl14getTorqueRangeEiPdS2_@Base 2.3.70.1
 _ZN4yarp3dev22ImplementTorqueControl15getTorqueRangesEPdS2_@Base 2.3.70.1
 _ZN4yarp3dev22ImplementTorqueControl20getMotorTorqueParamsEiPNS0_21MotorTorqueParametersE@Base 2.3.70.1
 _ZN4yarp3dev22ImplementTorqueControl20setMotorTorqueParamsEiNS0_21MotorTorqueParametersE@Base 2.3.70.1
 _ZN4yarp3dev22ImplementTorqueControl7getAxesEPi@Base 2.3.70.1
 _ZN4yarp3dev22ImplementTorqueControl9getTorqueEiPd@Base 2.3.70.1
 _ZN4yarp3dev22ImplementTorqueControlC1EPNS0_17ITorqueControlRawE@Base 2.3.70.1
 _ZN4yarp3dev22ImplementTorqueControlC2EPNS0_17ITorqueControlRawE@Base 2.3.70.1
 _ZN4yarp3dev22ImplementTorqueControlD0Ev@Base 2.3.70.1
 _ZN4yarp3dev22ImplementTorqueControlD1Ev@Base 2.3.70.1
 _ZN4yarp3dev22ImplementTorqueControlD2Ev@Base 2.3.70.1
 _ZN4yarp3dev23ImplementControlLimits210initializeEiPKiPKdS5_@Base 2.3.70.1
 _ZN4yarp3dev23ImplementControlLimits212getVelLimitsEiPdS2_@Base 2.3.70.1
 _ZN4yarp3dev23ImplementControlLimits212setVelLimitsEidd@Base 2.3.70.1
 _ZN4yarp3dev23ImplementControlLimits212uninitializeEv@Base 2.3.70.1
 _ZN4yarp3dev23ImplementControlLimits29getLimitsEiPdS2_@Base 2.3.70.1
 _ZN4yarp3dev23ImplementControlLimits29setLimitsEidd@Base 2.3.70.1
 _ZN4yarp3dev23ImplementControlLimits2C1EPNS0_18IControlLimits2RawE@Base 2.3.70.1
 _ZN4yarp3dev23ImplementControlLimits2C2EPNS0_18IControlLimits2RawE@Base 2.3.70.1
 _ZN4yarp3dev23ImplementControlLimits2D0Ev@Base 2.3.70.1
 _ZN4yarp3dev23ImplementControlLimits2D1Ev@Base 2.3.70.1
 _ZN4yarp3dev23ImplementControlLimits2D2Ev@Base 2.3.70.1
 _ZN4yarp3dev23ImplementCurrentControl10getCurrentEiPd@Base 2.3.70.1
 _ZN4yarp3dev23ImplementCurrentControl10initializeEiPKiPKd@Base 2.3.70.1
 _ZN4yarp3dev23ImplementCurrentControl11getCurrentsEPd@Base 2.3.70.1
 _ZN4yarp3dev23ImplementCurrentControl12uninitializeEv@Base 2.3.70.1
 _ZN4yarp3dev23ImplementCurrentControl13getRefCurrentEiPd@Base 2.3.70.1
 _ZN4yarp3dev23ImplementCurrentControl13setRefCurrentEid@Base 2.3.70.1
 _ZN4yarp3dev23ImplementCurrentControl14getRefCurrentsEPd@Base 2.3.70.1
 _ZN4yarp3dev23ImplementCurrentControl14setRefCurrentsEPKd@Base 2.3.70.1
 _ZN4yarp3dev23ImplementCurrentControl14setRefCurrentsEiPKiPKd@Base 2.3.70.1
 _ZN4yarp3dev23ImplementCurrentControl15getCurrentRangeEiPdS2_@Base 2.3.70.1
 _ZN4yarp3dev23ImplementCurrentControl16getCurrentRangesEPdS2_@Base 2.3.70.1
 _ZN4yarp3dev23ImplementCurrentControl17getNumberOfMotorsEPi@Base 2.3.70.1
 _ZN4yarp3dev23ImplementCurrentControlC1EPNS0_18ICurrentControlRawE@Base 2.3.70.1
 _ZN4yarp3dev23ImplementCurrentControlC2EPNS0_18ICurrentControlRawE@Base 2.3.70.1
 _ZN4yarp3dev23ImplementCurrentControlD0Ev@Base 2.3.70.1
 _ZN4yarp3dev23ImplementCurrentControlD1Ev@Base 2.3.70.1
 _ZN4yarp3dev23ImplementCurrentControlD2Ev@Base 2.3.70.1
 _ZN4yarp3dev23ImplementPositionDirect10initializeEiPKiPKdS5_@Base 2.3.70.1
 _ZN4yarp3dev23ImplementPositionDirect11setPositionEid@Base 2.3.70.1
 _ZN4yarp3dev23ImplementPositionDirect12setPositionsEPKd@Base 2.3.70.1
 _ZN4yarp3dev23ImplementPositionDirect12setPositionsEiPKiPd@Base 2.3.70.1
 _ZN4yarp3dev23ImplementPositionDirect12uninitializeEv@Base 2.3.70.1
 _ZN4yarp3dev23ImplementPositionDirect14getRefPositionEiPd@Base 2.3.70.1
 _ZN4yarp3dev23ImplementPositionDirect15getRefPositionsEPd@Base 2.3.70.1
 _ZN4yarp3dev23ImplementPositionDirect15getRefPositionsEiPKiPd@Base 2.3.70.1
 _ZN4yarp3dev23ImplementPositionDirect7getAxesEPi@Base 2.3.70.1
 _ZN4yarp3dev23ImplementPositionDirectC1EPNS0_18IPositionDirectRawE@Base 2.3.70.1
 _ZN4yarp3dev23ImplementPositionDirectC2EPNS0_18IPositionDirectRawE@Base 2.3.70.1
 _ZN4yarp3dev23ImplementPositionDirectD0Ev@Base 2.3.70.1
 _ZN4yarp3dev23ImplementPositionDirectD1Ev@Base 2.3.70.1
 _ZN4yarp3dev23ImplementPositionDirectD2Ev@Base 2.3.70.1
 _ZN4yarp3dev24ImplementInteractionMode10initializeEiPKi@Base 2.3.70.1
 _ZN4yarp3dev24ImplementInteractionMode10initializeEiPKiPKdS5_@Base 2.3.70.1
 _ZN4yarp3dev24ImplementInteractionMode12uninitializeEv@Base 2.3.70.1
 _ZN4yarp3dev24ImplementInteractionMode18getInteractionModeEiPNS0_19InteractionModeEnumE@Base 2.3.70.1
 _ZN4yarp3dev24ImplementInteractionMode18setInteractionModeEiNS0_19InteractionModeEnumE@Base 2.3.70.1
 _ZN4yarp3dev24ImplementInteractionMode19getInteractionModesEPNS0_19InteractionModeEnumE@Base 2.3.70.1
 _ZN4yarp3dev24ImplementInteractionMode19getInteractionModesEiPiPNS0_19InteractionModeEnumE@Base 2.3.70.1
 _ZN4yarp3dev24ImplementInteractionMode19setInteractionModesEPNS0_19InteractionModeEnumE@Base 2.3.70.1
 _ZN4yarp3dev24ImplementInteractionMode19setInteractionModesEiPiPNS0_19InteractionModeEnumE@Base 2.3.70.1
 _ZN4yarp3dev24ImplementInteractionModeC1EPNS0_19IInteractionModeRawE@Base 2.3.70.1
 _ZN4yarp3dev24ImplementInteractionModeC2EPNS0_19IInteractionModeRawE@Base 2.3.70.1
 _ZN4yarp3dev24ImplementInteractionModeD0Ev@Base 2.3.70.1
 _ZN4yarp3dev24ImplementInteractionModeD1Ev@Base 2.3.70.1
 _ZN4yarp3dev24ImplementInteractionModeD2Ev@Base 2.3.70.1
 _ZN4yarp3dev24ImplementRemoteVariables10initializeEiPKi@Base 2.3.70.1
 _ZN4yarp3dev24ImplementRemoteVariables12uninitializeEv@Base 2.3.70.1
 _ZN4yarp3dev24ImplementRemoteVariables17getRemoteVariableENS_2os11ConstStringERNS2_6BottleE@Base 2.3.70.1
 _ZN4yarp3dev24ImplementRemoteVariables17setRemoteVariableENS_2os11ConstStringERKNS2_6BottleE@Base 2.3.70.1
 _ZN4yarp3dev24ImplementRemoteVariables22getRemoteVariablesListEPNS_2os6BottleE@Base 2.3.70.1
 _ZN4yarp3dev24ImplementRemoteVariablesC1EPNS0_19IRemoteVariablesRawE@Base 2.3.70.1
 _ZN4yarp3dev24ImplementRemoteVariablesC2EPNS0_19IRemoteVariablesRawE@Base 2.3.70.1
 _ZN4yarp3dev24ImplementRemoteVariablesD0Ev@Base 2.3.70.1
 _ZN4yarp3dev24ImplementRemoteVariablesD1Ev@Base 2.3.70.1
 _ZN4yarp3dev24ImplementRemoteVariablesD2Ev@Base 2.3.70.1
 _ZN4yarp3dev25ImplementImpedanceControl10initializeEiPKiPKdS5_S5_@Base 2.3.70.1
 _ZN4yarp3dev25ImplementImpedanceControl12getImpedanceEiPdS2_@Base 2.3.70.1
 _ZN4yarp3dev25ImplementImpedanceControl12setImpedanceEidd@Base 2.3.70.1
 _ZN4yarp3dev25ImplementImpedanceControl12uninitializeEv@Base 2.3.70.1
 _ZN4yarp3dev25ImplementImpedanceControl18getImpedanceOffsetEiPd@Base 2.3.70.1
 _ZN4yarp3dev25ImplementImpedanceControl18setImpedanceOffsetEid@Base 2.3.70.1
 _ZN4yarp3dev25ImplementImpedanceControl24getCurrentImpedanceLimitEiPdS2_S2_S2_@Base 2.3.70.1
 _ZN4yarp3dev25ImplementImpedanceControl7getAxesEPi@Base 2.3.70.1
 _ZN4yarp3dev25ImplementImpedanceControlC1EPNS0_20IImpedanceControlRawE@Base 2.3.70.1
 _ZN4yarp3dev25ImplementImpedanceControlC2EPNS0_20IImpedanceControlRawE@Base 2.3.70.1
 _ZN4yarp3dev25ImplementImpedanceControlD0Ev@Base 2.3.70.1
 _ZN4yarp3dev25ImplementImpedanceControlD1Ev@Base 2.3.70.1
 _ZN4yarp3dev25ImplementImpedanceControlD2Ev@Base 2.3.70.1
 _ZN4yarp3dev25ImplementPositionControl210initializeEiPKiPKdS5_@Base 2.3.70.1
 _ZN4yarp3dev25ImplementPositionControl211getRefSpeedEiPd@Base 2.3.70.1
 _ZN4yarp3dev25ImplementPositionControl211setRefSpeedEid@Base 2.3.70.1
 _ZN4yarp3dev25ImplementPositionControl212getRefSpeedsEPd@Base 2.3.70.1
 _ZN4yarp3dev25ImplementPositionControl212getRefSpeedsEiPKiPd@Base 2.3.70.1
 _ZN4yarp3dev25ImplementPositionControl212positionMoveEPKd@Base 2.3.70.1
 _ZN4yarp3dev25ImplementPositionControl212positionMoveEiPKiPKd@Base 2.3.70.1
 _ZN4yarp3dev25ImplementPositionControl212positionMoveEid@Base 2.3.70.1
 _ZN4yarp3dev25ImplementPositionControl212relativeMoveEPKd@Base 2.3.70.1
 _ZN4yarp3dev25ImplementPositionControl212relativeMoveEiPKiPKd@Base 2.3.70.1
 _ZN4yarp3dev25ImplementPositionControl212relativeMoveEid@Base 2.3.70.1
 _ZN4yarp3dev25ImplementPositionControl212setRefSpeedsEPKd@Base 2.3.70.1
 _ZN4yarp3dev25ImplementPositionControl212setRefSpeedsEiPKiPKd@Base 2.3.70.1
 _ZN4yarp3dev25ImplementPositionControl212uninitializeEv@Base 2.3.70.1
 _ZN4yarp3dev25ImplementPositionControl215checkMotionDoneEPb@Base 2.3.70.1
 _ZN4yarp3dev25ImplementPositionControl215checkMotionDoneEiPKiPb@Base 2.3.70.1
 _ZN4yarp3dev25ImplementPositionControl215checkMotionDoneEiPb@Base 2.3.70.1
 _ZN4yarp3dev25ImplementPositionControl217getTargetPositionEiPd@Base 2.3.70.1
 _ZN4yarp3dev25ImplementPositionControl218getRefAccelerationEiPd@Base 2.3.70.1
 _ZN4yarp3dev25ImplementPositionControl218getTargetPositionsEPd@Base 2.3.70.1
 _ZN4yarp3dev25ImplementPositionControl218getTargetPositionsEiPKiPd@Base 2.3.70.1
 _ZN4yarp3dev25ImplementPositionControl218setRefAccelerationEid@Base 2.3.70.1
 _ZN4yarp3dev25ImplementPositionControl219getRefAccelerationsEPd@Base 2.3.70.1
 _ZN4yarp3dev25ImplementPositionControl219getRefAccelerationsEiPKiPd@Base 2.3.70.1
 _ZN4yarp3dev25ImplementPositionControl219setRefAccelerationsEPKd@Base 2.3.70.1
 _ZN4yarp3dev25ImplementPositionControl219setRefAccelerationsEiPKiPKd@Base 2.3.70.1
 _ZN4yarp3dev25ImplementPositionControl24stopEi@Base 2.3.70.1
 _ZN4yarp3dev25ImplementPositionControl24stopEiPKi@Base 2.3.70.1
 _ZN4yarp3dev25ImplementPositionControl24stopEv@Base 2.3.70.1
 _ZN4yarp3dev25ImplementPositionControl27getAxesEPi@Base 2.3.70.1
 _ZN4yarp3dev25ImplementPositionControl2C1EPNS0_20IPositionControl2RawE@Base 2.3.70.1
 _ZN4yarp3dev25ImplementPositionControl2C2EPNS0_20IPositionControl2RawE@Base 2.3.70.1
 _ZN4yarp3dev25ImplementPositionControl2D0Ev@Base 2.3.70.1
 _ZN4yarp3dev25ImplementPositionControl2D1Ev@Base 2.3.70.1
 _ZN4yarp3dev25ImplementPositionControl2D2Ev@Base 2.3.70.1
 _ZN4yarp3dev25ImplementVelocityControl210initializeEiPKiPKdS5_@Base 2.3.70.1
 _ZN4yarp3dev25ImplementVelocityControl212uninitializeEv@Base 2.3.70.1
 _ZN4yarp3dev25ImplementVelocityControl212velocityMoveEPKd@Base 2.3.70.1
 _ZN4yarp3dev25ImplementVelocityControl212velocityMoveEiPKiPKd@Base 2.3.70.1
 _ZN4yarp3dev25ImplementVelocityControl212velocityMoveEid@Base 2.3.70.1
 _ZN4yarp3dev25ImplementVelocityControl214getRefVelocityEiPd@Base 2.3.70.1
 _ZN4yarp3dev25ImplementVelocityControl216getRefVelocitiesEPd@Base 2.3.70.1
 _ZN4yarp3dev25ImplementVelocityControl216getRefVelocitiesEiPKiPd@Base 2.3.70.1
 _ZN4yarp3dev25ImplementVelocityControl218getRefAccelerationEiPd@Base 2.3.70.1
 _ZN4yarp3dev25ImplementVelocityControl218setRefAccelerationEid@Base 2.3.70.1
 _ZN4yarp3dev25ImplementVelocityControl219getRefAccelerationsEPd@Base 2.3.70.1
 _ZN4yarp3dev25ImplementVelocityControl219getRefAccelerationsEiPKiPd@Base 2.3.70.1
 _ZN4yarp3dev25ImplementVelocityControl219setRefAccelerationsEPKd@Base 2.3.70.1
 _ZN4yarp3dev25ImplementVelocityControl219setRefAccelerationsEiPKiPKd@Base 2.3.70.1
 _ZN4yarp3dev25ImplementVelocityControl24stopEi@Base 2.3.70.1
 _ZN4yarp3dev25ImplementVelocityControl24stopEiPKi@Base 2.3.70.1
 _ZN4yarp3dev25ImplementVelocityControl24stopEv@Base 2.3.70.1
 _ZN4yarp3dev25ImplementVelocityControl27getAxesEPi@Base 2.3.70.1
 _ZN4yarp3dev25ImplementVelocityControl2C1EPNS0_20IVelocityControl2RawE@Base 2.3.70.1
 _ZN4yarp3dev25ImplementVelocityControl2C2EPNS0_20IVelocityControl2RawE@Base 2.3.70.1
 _ZN4yarp3dev25ImplementVelocityControl2D0Ev@Base 2.3.70.1
 _ZN4yarp3dev25ImplementVelocityControl2D1Ev@Base 2.3.70.1
 _ZN4yarp3dev25ImplementVelocityControl2D2Ev@Base 2.3.70.1
 _ZN4yarp3dev25StubImplPositionDirectRaw19NOT_YET_IMPLEMENTEDEPKc@Base 2.3.70.1
 _ZN4yarp3dev26StubImplPositionControlRaw19NOT_YET_IMPLEMENTEDEPKc@Base 2.3.70.1
 _ZN4yarp3dev28FrameGrabberControls2_Parser7respondERKNS_2os6BottleERS3_@Base 2.3.70.1
 _ZN4yarp3dev28FrameGrabberControls2_Parser9configureEPNS0_22IFrameGrabberControls2E@Base 2.3.70.1
 _ZN4yarp3dev28FrameGrabberControls2_ParserC1Ev@Base 2.3.70.1
 _ZN4yarp3dev28FrameGrabberControls2_ParserC2Ev@Base 2.3.70.1
 _ZN4yarp3dev28FrameGrabberControls2_Sender10getFeatureEiPd@Base 2.3.70.1
 _ZN4yarp3dev28FrameGrabberControls2_Sender10getFeatureEiPdS2_@Base 2.3.70.1
 _ZN4yarp3dev28FrameGrabberControls2_Sender10hasFeatureEiPb@Base 2.3.70.1
 _ZN4yarp3dev28FrameGrabberControls2_Sender10hasOnePushEiPb@Base 2.3.70.1
 _ZN4yarp3dev28FrameGrabberControls2_Sender10setFeatureEid@Base 2.3.70.1
 _ZN4yarp3dev28FrameGrabberControls2_Sender10setFeatureEidd@Base 2.3.70.1
 _ZN4yarp3dev28FrameGrabberControls2_Sender10setOnePushEi@Base 2.3.70.1
 _ZN4yarp3dev28FrameGrabberControls2_Sender20getCameraDescriptionEP16CameraDescriptor@Base 2.3.70.1
 _ZN4yarp3dev28FrameGrabberControls2_Sender7getModeEiP11FeatureMode@Base 2.3.70.1
 _ZN4yarp3dev28FrameGrabberControls2_Sender7hasAutoEiPb@Base 2.3.70.1
 _ZN4yarp3dev28FrameGrabberControls2_Sender7setModeEi11FeatureMode@Base 2.3.70.1
 _ZN4yarp3dev28FrameGrabberControls2_Sender8hasOnOffEiPb@Base 2.3.70.1
 _ZN4yarp3dev28FrameGrabberControls2_Sender9getActiveEiPb@Base 2.3.70.1
 _ZN4yarp3dev28FrameGrabberControls2_Sender9hasManualEiPb@Base 2.3.70.1
 _ZN4yarp3dev28FrameGrabberControls2_Sender9setActiveEib@Base 2.3.70.1
 _ZN4yarp3dev28FrameGrabberControls2_SenderC1ERNS_2os4PortE@Base 2.3.70.1
 _ZN4yarp3dev28FrameGrabberControls2_SenderC2ERNS_2os4PortE@Base 2.3.70.1
 _ZN4yarp3dev32Implement_RgbVisualParams_Parser7respondERKNS_2os6BottleERS3_@Base 2.3.70.1
 _ZN4yarp3dev32Implement_RgbVisualParams_Parser9configureEPNS0_16IRgbVisualParamsE@Base 2.3.70.1
 _ZN4yarp3dev32Implement_RgbVisualParams_ParserC1Ev@Base 2.3.70.1
 _ZN4yarp3dev32Implement_RgbVisualParams_ParserC2Ev@Base 2.3.70.1
 _ZN4yarp3dev32Implement_RgbVisualParams_Sender11getRgbWidthEv@Base 2.3.70.1
 _ZN4yarp3dev32Implement_RgbVisualParams_Sender12getRgbHeightEv@Base 2.3.70.1
 _ZN4yarp3dev32Implement_RgbVisualParams_Sender15getRgbMirroringERb@Base 2.3.70.1
 _ZN4yarp3dev32Implement_RgbVisualParams_Sender15setRgbMirroringEb@Base 2.3.70.1
 _ZN4yarp3dev32Implement_RgbVisualParams_Sender16getRgbResolutionERiS2_@Base 2.3.70.1
 _ZN4yarp3dev32Implement_RgbVisualParams_Sender16setRgbResolutionEii@Base 2.3.70.1
 _ZN4yarp3dev32Implement_RgbVisualParams_Sender20getRgbIntrinsicParamERNS_2os8PropertyE@Base 2.3.70.1
 _ZN4yarp3dev32Implement_RgbVisualParams_Sender29getRgbSupportedConfigurationsERNS_3sig8VectorOfINS0_12CameraConfigEEE@Base 2.3.70.1
 _ZN4yarp3dev32Implement_RgbVisualParams_Sender9getRgbFOVERdS2_@Base 2.3.70.1
 _ZN4yarp3dev32Implement_RgbVisualParams_Sender9setRgbFOVEdd@Base 2.3.70.1
 _ZN4yarp3dev32Implement_RgbVisualParams_SenderC1ERNS_2os4PortE@Base 2.3.70.1
 _ZN4yarp3dev32Implement_RgbVisualParams_SenderC2ERNS_2os4PortE@Base 2.3.70.1
 _ZN4yarp3dev34Implement_DepthVisualParams_Parser7respondERKNS_2os6BottleERS3_@Base 2.3.70.1
 _ZN4yarp3dev34Implement_DepthVisualParams_Parser9configureEPNS0_18IDepthVisualParamsE@Base 2.3.70.1
 _ZN4yarp3dev34Implement_DepthVisualParams_ParserC1Ev@Base 2.3.70.1
 _ZN4yarp3dev34Implement_DepthVisualParams_ParserC2Ev@Base 2.3.70.1
 _ZN4yarp3dev34Implement_DepthVisualParams_Sender11getDepthFOVERdS2_@Base 2.3.70.1
 _ZN4yarp3dev34Implement_DepthVisualParams_Sender11setDepthFOVEdd@Base 2.3.70.1
 _ZN4yarp3dev34Implement_DepthVisualParams_Sender13getDepthWidthEv@Base 2.3.70.1
 _ZN4yarp3dev34Implement_DepthVisualParams_Sender14getDepthHeightEv@Base 2.3.70.1
 _ZN4yarp3dev34Implement_DepthVisualParams_Sender16getDepthAccuracyEv@Base 2.3.70.1
 _ZN4yarp3dev34Implement_DepthVisualParams_Sender16setDepthAccuracyEd@Base 2.3.70.1
 _ZN4yarp3dev34Implement_DepthVisualParams_Sender17getDepthMirroringERb@Base 2.3.70.1
 _ZN4yarp3dev34Implement_DepthVisualParams_Sender17setDepthMirroringEb@Base 2.3.70.1
 _ZN4yarp3dev34Implement_DepthVisualParams_Sender18getDepthClipPlanesERdS2_@Base 2.3.70.1
 _ZN4yarp3dev34Implement_DepthVisualParams_Sender18setDepthClipPlanesEdd@Base 2.3.70.1
 _ZN4yarp3dev34Implement_DepthVisualParams_Sender18setDepthResolutionEii@Base 2.3.70.1
 _ZN4yarp3dev34Implement_DepthVisualParams_Sender22getDepthIntrinsicParamERNS_2os8PropertyE@Base 2.3.70.1
 _ZN4yarp3dev34Implement_DepthVisualParams_SenderC1ERNS_2os4PortE@Base 2.3.70.1
 _ZN4yarp3dev34Implement_DepthVisualParams_SenderC2ERNS_2os4PortE@Base 2.3.70.1
 _ZN4yarp3dev3Pid17setStictionValuesEdd@Base 2.3.70.1
 _ZN4yarp3dev3Pid5clearEv@Base 2.3.70.1
 _ZN4yarp3dev3Pid5setKdEd@Base 2.3.70.1
 _ZN4yarp3dev3Pid5setKiEd@Base 2.3.70.1
 _ZN4yarp3dev3Pid5setKpEd@Base 2.3.70.1
 _ZN4yarp3dev3Pid6setKffEd@Base 2.3.70.1
 _ZN4yarp3dev3Pid8setScaleEd@Base 2.3.70.1
 _ZN4yarp3dev3Pid9setMaxIntEd@Base 2.3.70.1
 _ZN4yarp3dev3Pid9setMaxOutEd@Base 2.3.70.1
 _ZN4yarp3dev3Pid9setOffsetEd@Base 2.3.70.1
 _ZN4yarp3dev3PidC1Edddddd@Base 2.3.70.1
 _ZN4yarp3dev3PidC1Eddddddddd@Base 2.3.70.1
 _ZN4yarp3dev3PidC1Ev@Base 2.3.70.1
 _ZN4yarp3dev3PidC2Edddddd@Base 2.3.70.1
 _ZN4yarp3dev3PidC2Eddddddddd@Base 2.3.70.1
 _ZN4yarp3dev3PidC2Ev@Base 2.3.70.1
 _ZN4yarp3dev3PidD1Ev@Base 2.3.70.1
 _ZN4yarp3dev3PidD2Ev@Base 2.3.70.1
 _ZN4yarp3dev3PideqERKS1_@Base 2.3.70.1
 _ZN4yarp3dev4impl19RgbImageReader_Impl6onReadERNS_3sig9FlexImageE@Base 2.3.70.1
 _ZN4yarp3dev4impl19RgbImageReader_Impl8getImageEv@Base 2.3.70.1
 _ZN4yarp3dev4impl19RgbImageReader_ImplC1Ev@Base 2.3.70.1
 _ZN4yarp3dev4impl19RgbImageReader_ImplC2Ev@Base 2.3.70.1
 _ZN4yarp3dev4impl19RgbImageReader_ImplD0Ev@Base 2.3.70.1
 _ZN4yarp3dev4impl19RgbImageReader_ImplD1Ev@Base 2.3.70.1
 _ZN4yarp3dev4impl19RgbImageReader_ImplD2Ev@Base 2.3.70.1
 _ZN4yarp3dev4impl21FloatImageReader_Impl6onReadERNS_3sig7ImageOfIfEE@Base 2.3.70.1
 _ZN4yarp3dev4impl21FloatImageReader_Impl8getImageEv@Base 2.3.70.1
 _ZN4yarp3dev4impl21FloatImageReader_ImplC1Ev@Base 2.3.70.1
 _ZN4yarp3dev4impl21FloatImageReader_ImplC2Ev@Base 2.3.70.1
 _ZN4yarp3dev4impl21FloatImageReader_ImplD0Ev@Base 2.3.70.1
 _ZN4yarp3dev4impl21FloatImageReader_ImplD1Ev@Base 2.3.70.1
 _ZN4yarp3dev4impl21FloatImageReader_ImplD2Ev@Base 2.3.70.1
 _ZN4yarp3dev7Drivers3addEPNS0_13DriverCreatorE@Base 2.3.70.1
 _ZN4yarp3dev7Drivers4findEPKc@Base 2.3.70.1
 _ZN4yarp3dev7Drivers4initEv@Base 2.3.70.1
 _ZN4yarp3dev7Drivers4openERNS_2os10SearchableE@Base 2.3.70.1
 _ZN4yarp3dev7Drivers6removeEPKc@Base 2.3.70.1
 _ZN4yarp3dev7Drivers7yarpdevEiPPc@Base 2.3.70.1
 _ZN4yarp3dev7Drivers8instanceE@Base 2.3.70.1
 _ZN4yarp3dev7Drivers8toStringEv@Base 2.3.70.1
 _ZN4yarp3dev7DriversC1Ev@Base 2.3.70.1
 _ZN4yarp3dev7DriversC2Ev@Base 2.3.70.1
 _ZN4yarp3dev7DriversD0Ev@Base 2.3.70.1
 _ZN4yarp3dev7DriversD1Ev@Base 2.3.70.1
 _ZN4yarp3dev7DriversD2Ev@Base 2.3.70.1
 _ZN4yarp3dev9MapGrid2D10setMapFlagENS_4math5Vec2DIiEENS1_9map_flagsE@Base 2.3.70.1
 _ZN4yarp3dev9MapGrid2D10setMapNameENSt7__cxx1112basic_stringIcSt11char_traitsIcESaIcEEE@Base 2.3.70.1
 _ZN4yarp3dev9MapGrid2D11enlargeCellENS_4math5Vec2DIiEE@Base 2.3.70.1
 _ZN4yarp3dev9MapGrid2D11setMapImageERNS_3sig7ImageOfINS2_8PixelRgbEEE@Base 2.3.70.1
 _ZN4yarp3dev9MapGrid2D12loadFromFileENSt7__cxx1112basic_stringIcSt11char_traitsIcESaIcEEE@Base 2.3.70.1
 _ZN4yarp3dev9MapGrid2D13loadROSParamsENSt7__cxx1112basic_stringIcSt11char_traitsIcESaIcEEERS7_RdS9_S9_S9_@Base 2.3.70.1
 _ZN4yarp3dev9MapGrid2D13setResolutionEd@Base 2.3.70.1
 _ZN4yarp3dev9MapGrid2D14loadMapROSOnlyENSt7__cxx1112basic_stringIcSt11char_traitsIcESaIcEEE@Base 2.3.70.1
 _ZN4yarp3dev9MapGrid2D15loadMapYarpOnlyENSt7__cxx1112basic_stringIcSt11char_traitsIcESaIcEEE@Base 2.3.70.1
 _ZN4yarp3dev9MapGrid2D16enlargeObstaclesEd@Base 2.3.70.1
 _ZN4yarp3dev9MapGrid2D16setOccupancyDataENS_4math5Vec2DIiEEd@Base 2.3.70.1
 _ZN4yarp3dev9MapGrid2D16setOccupancyGridERNS_3sig7ImageOfIhEE@Base 2.3.70.1
 _ZN4yarp3dev9MapGrid2D16setSize_in_cellsEmm@Base 2.3.70.1
 _ZN4yarp3dev9MapGrid2D17loadMapYarpAndRosENSt7__cxx1112basic_stringIcSt11char_traitsIcESaIcEEES7_@Base 2.3.70.1
 _ZN4yarp3dev9MapGrid2D17setSize_in_metersEdd@Base 2.3.70.1
 _ZN4yarp3dev9MapGrid2D4readERNS_2os16ConnectionReaderE@Base 2.3.70.1
 _ZN4yarp3dev9MapGrid2D5writeERNS_2os16ConnectionWriterE@Base 2.3.70.1
 _ZN4yarp3dev9MapGrid2D9setOriginEddd@Base 2.3.70.1
 _ZN4yarp3dev9MapGrid2DC1Ev@Base 2.3.70.1
 _ZN4yarp3dev9MapGrid2DC2Ev@Base 2.3.70.1
 _ZN4yarp3dev9MapGrid2DD0Ev@Base 2.3.70.1
 _ZN4yarp3dev9MapGrid2DD1Ev@Base 2.3.70.1
 _ZN4yarp3dev9MapGrid2DD2Ev@Base 2.3.70.1
 _ZN4yarp4math5Vec2DIdE7getTypeEv@Base 2.3.70.1
 _ZN4yarp4math5Vec2DIiE7getTypeEv@Base 2.3.70.1
 _ZN9__gnu_cxx12__to_xstringINSt7__cxx1112basic_stringIcSt11char_traitsIcESaIcEEEcEET_PFiPT0_mPKS8_P13__va_list_tagEmSB_z@Base 2.3.70.1
 _ZNK4yarp3dev14PolyDriverList4sizeEv@Base 2.3.70.1
 _ZNK4yarp3dev14PolyDriverListixEi@Base 2.3.70.1
 _ZNK4yarp3dev18ServerFrameGrabber5widthEv@Base 2.3.70.1
 _ZNK4yarp3dev18ServerFrameGrabber6heightEv@Base 2.3.70.1
 _ZNK4yarp3dev9MapGrid2D10cell2WorldENS_4math5Vec2DIiEE@Base 2.3.70.1
 _ZNK4yarp3dev9MapGrid2D10getMapNameB5cxx11Ev@Base 2.3.70.1
 _ZNK4yarp3dev9MapGrid2D10saveToFileENSt7__cxx1112basic_stringIcSt11char_traitsIcESaIcEEE@Base 2.3.70.1
 _ZNK4yarp3dev9MapGrid2D10world2CellENS_4math5Vec2DIdEE@Base 2.3.70.1
 _ZNK4yarp3dev9MapGrid2D11getMapImageERNS_3sig7ImageOfINS2_8PixelRgbEEE@Base 2.3.70.1
 _ZNK4yarp3dev9MapGrid2D11isInsideMapENS_4math5Vec2DIdEE@Base 2.3.70.1
 _ZNK4yarp3dev9MapGrid2D11isInsideMapENS_4math5Vec2DIiEE@Base 2.3.70.1
 _ZNK4yarp3dev9MapGrid2D13getResolutionERd@Base 2.3.70.1
 _ZNK4yarp3dev9MapGrid2D13isIdenticalToERKS1_@Base 2.3.70.1
 _ZNK4yarp3dev9MapGrid2D15CellDataToPixelERKh@Base 2.3.70.1
 _ZNK4yarp3dev9MapGrid2D15PixelToCellDataERKNS_3sig8PixelRgbE@Base 2.3.70.1
 _ZNK4yarp3dev9MapGrid2D16getOccupancyDataENS_4math5Vec2DIiEERd@Base 2.3.70.1
 _ZNK4yarp3dev9MapGrid2D16getOccupancyGridERNS_3sig7ImageOfIhEE@Base 2.3.70.1
 _ZNK4yarp3dev9MapGrid2D16getSize_in_cellsERmS2_@Base 2.3.70.1
 _ZNK4yarp3dev9MapGrid2D17getSize_in_metersERdS2_@Base 2.3.70.1
 _ZNK4yarp3dev9MapGrid2D5widthEv@Base 2.3.70.1
 _ZNK4yarp3dev9MapGrid2D6heightEv@Base 2.3.70.1
 _ZNK4yarp3dev9MapGrid2D6isFreeENS_4math5Vec2DIiEE@Base 2.3.70.1
 _ZNK4yarp3dev9MapGrid2D6isWallENS_4math5Vec2DIiEE@Base 2.3.70.1
 _ZNK4yarp3dev9MapGrid2D9getOriginERdS2_S2_@Base 2.3.70.1
 _ZNK4yarp3dev9MapGrid2D9isKeepOutENS_4math5Vec2DIiEE@Base 2.3.70.1
 _ZNK4yarp3dev9MapGrid2D9isNotFreeENS_4math5Vec2DIiEE@Base 2.3.70.1
 _ZNSt3mapINSt7__cxx1112basic_stringIcSt11char_traitsIcESaIcEEEN4yarp3dev9MapGrid2DESt4lessIS5_ESaISt4pairIKS5_S8_EEEixERSC_@Base 2.3.70.1
 _ZNSt3mapIiMN4yarp3dev17IJoypadControllerEFbRjESt4lessIiESaISt4pairIKiS5_EEEixERS9_@Base 2.3.70.1
 _ZNSt6vectorIN4yarp2os11ConstStringESaIS2_EE17_M_realloc_insertIJRKS2_EEEvN9__gnu_cxx17__normal_iteratorIPS2_S4_EEDpOT_@Base 2.3.70.1
 _ZNSt6vectorIN4yarp2os11ConstStringESaIS2_EE17_M_realloc_insertIJS2_EEEvN9__gnu_cxx17__normal_iteratorIPS2_S4_EEDpOT_@Base 2.3.70.1
 _ZNSt6vectorIN4yarp2os11ConstStringESaIS2_EED1Ev@Base 2.3.70.1
 _ZNSt6vectorIN4yarp2os11ConstStringESaIS2_EED2Ev@Base 2.3.70.1
 _ZNSt6vectorIN4yarp3dev19InteractionModeEnumESaIS2_EE17_M_realloc_insertIJRKS2_EEEvN9__gnu_cxx17__normal_iteratorIPS2_S4_EEDpOT_@Base 2.3.70.1
 _ZNSt6vectorIN4yarp3dev19InteractionModeEnumESaIS2_EE7reserveEm@Base 2.3.70.1
 _ZNSt6vectorIN4yarp3dev20LaserMeasurementDataESaIS2_EE17_M_default_appendEm@Base 2.3.70.1
 _ZNSt6vectorIN4yarp4math14FrameTransformESaIS2_EE17_M_realloc_insertIJRKS2_EEEvN9__gnu_cxx17__normal_iteratorIPS2_S4_EEDpOT_@Base 2.3.70.1
 _ZNSt6vectorIN4yarp4math14FrameTransformESaIS2_EE8_M_eraseEN9__gnu_cxx17__normal_iteratorIPS2_S4_EE@Base 2.3.70.1
 _ZNSt6vectorIN4yarp4math14FrameTransformESaIS2_EED1Ev@Base 2.3.70.1
 _ZNSt6vectorIN4yarp4math14FrameTransformESaIS2_EED2Ev@Base 2.3.70.1
 _ZNSt6vectorIN4yarp4math5Vec2DIiEESaIS3_EE17_M_realloc_insertIJS3_EEEvN9__gnu_cxx17__normal_iteratorIPS3_S5_EEDpOT_@Base 2.3.70.1
 _ZNSt6vectorINSt7__cxx1112basic_stringIcSt11char_traitsIcESaIcEEESaIS5_EE12emplace_backIJS5_EEEvDpOT_@Base 2.3.70.1
 _ZNSt6vectorINSt7__cxx1112basic_stringIcSt11char_traitsIcESaIcEEESaIS5_EE17_M_default_appendEm@Base 2.3.70.1
 _ZNSt6vectorINSt7__cxx1112basic_stringIcSt11char_traitsIcESaIcEEESaIS5_EE17_M_realloc_insertIJRKS5_EEEvN9__gnu_cxx17__normal_iteratorIPS5_S7_EEDpOT_@Base 2.3.70.1
 _ZNSt6vectorINSt7__cxx1112basic_stringIcSt11char_traitsIcESaIcEEESaIS5_EE17_M_realloc_insertIJS5_EEEvN9__gnu_cxx17__normal_iteratorIPS5_S7_EEDpOT_@Base 2.3.70.1
 _ZNSt6vectorINSt7__cxx1112basic_stringIcSt11char_traitsIcESaIcEEESaIS5_EE6resizeEm@Base 2.3.70.1
 _ZNSt6vectorINSt7__cxx1112basic_stringIcSt11char_traitsIcESaIcEEESaIS5_EED1Ev@Base 2.3.70.1
 _ZNSt6vectorINSt7__cxx1112basic_stringIcSt11char_traitsIcESaIcEEESaIS5_EED2Ev@Base 2.3.70.1
 _ZNSt6vectorINSt7__cxx1112basic_stringIcSt11char_traitsIcESaIcEEESaIS5_EEaSERKS7_@Base 2.3.70.1
 _ZNSt6vectorIPN4yarp3dev10PolyDriverESaIS3_EE14_M_fill_insertEN9__gnu_cxx17__normal_iteratorIPS3_S5_EEmRKS3_@Base 2.3.70.1
 _ZNSt6vectorIS_IN4yarp3dev19InteractionModeEnumESaIS2_EESaIS4_EE17_M_default_appendEm@Base 2.3.70.1
 _ZNSt6vectorIS_IdSaIdEESaIS1_EE17_M_default_appendEm@Base 2.3.70.1
 _ZNSt6vectorIS_IiSaIiEESaIS1_EE17_M_default_appendEm@Base 2.3.70.1
 _ZNSt6vectorIdSaIdEE14_M_fill_insertEN9__gnu_cxx17__normal_iteratorIPdS1_EEmRKd@Base 2.3.70.1
 _ZNSt6vectorIdSaIdEE17_M_default_appendEm@Base 2.3.70.1
 _ZNSt6vectorIdSaIdEE17_M_realloc_insertIJRKdEEEvN9__gnu_cxx17__normal_iteratorIPdS1_EEDpOT_@Base 2.3.70.1
 _ZNSt6vectorIdSaIdEE6resizeEm@Base 2.3.70.1
 _ZNSt6vectorIdSaIdEE7reserveEm@Base 2.3.70.1
 _ZNSt6vectorIdSaIdEEaSERKS1_@Base 2.3.70.1
 _ZNSt6vectorIfSaIfEE17_M_default_appendEm@Base 2.3.70.1
 _ZNSt6vectorIfSaIfEE6resizeEm@Base 2.3.70.1
 _ZNSt6vectorIhSaIhEE17_M_default_appendEm@Base 2.3.70.1
 _ZNSt6vectorIhSaIhEE6resizeEm@Base 2.3.70.1
 _ZNSt6vectorIiSaIiEE14_M_fill_insertEN9__gnu_cxx17__normal_iteratorIPiS1_EEmRKi@Base 2.3.70.1
 _ZNSt6vectorIiSaIiEE17_M_default_appendEm@Base 2.3.70.1
 _ZNSt6vectorIiSaIiEE17_M_realloc_insertIJRKiEEEvN9__gnu_cxx17__normal_iteratorIPiS1_EEDpOT_@Base 2.3.70.1
 _ZNSt6vectorIiSaIiEE7reserveEm@Base 2.3.70.1
 _ZNSt6vectorImSaImEE17_M_realloc_insertIJmEEEvN9__gnu_cxx17__normal_iteratorIPmS1_EEDpOT_@Base 2.3.70.1
 _ZNSt8_Rb_treeINSt7__cxx1112basic_stringIcSt11char_traitsIcESaIcEEESt4pairIKS5_N4yarp3dev9MapGrid2DEESt10_Select1stISB_ESt4lessIS5_ESaISB_EE11equal_rangeERS7_@Base 2.3.70.1
 _ZNSt8_Rb_treeINSt7__cxx1112basic_stringIcSt11char_traitsIcESaIcEEESt4pairIKS5_N4yarp3dev9MapGrid2DEESt10_Select1stISB_ESt4lessIS5_ESaISB_EE24_M_get_insert_unique_posERS7_@Base 2.3.70.1
 _ZNSt8_Rb_treeINSt7__cxx1112basic_stringIcSt11char_traitsIcESaIcEEESt4pairIKS5_N4yarp3dev9MapGrid2DEESt10_Select1stISB_ESt4lessIS5_ESaISB_EE29_M_get_insert_hint_unique_posESt23_Rb_tree_const_iteratorISB_ERS7_@Base 2.3.70.1
 _ZNSt8_Rb_treeINSt7__cxx1112basic_stringIcSt11char_traitsIcESaIcEEESt4pairIKS5_N4yarp3dev9MapGrid2DEESt10_Select1stISB_ESt4lessIS5_ESaISB_EE4findERS7_@Base 2.3.70.1
 _ZNSt8_Rb_treeINSt7__cxx1112basic_stringIcSt11char_traitsIcESaIcEEESt4pairIKS5_N4yarp3dev9MapGrid2DEESt10_Select1stISB_ESt4lessIS5_ESaISB_EE5eraseERS7_@Base 2.3.70.1
 _ZNSt8_Rb_treeINSt7__cxx1112basic_stringIcSt11char_traitsIcESaIcEEESt4pairIKS5_N4yarp3dev9MapGrid2DEESt10_Select1stISB_ESt4lessIS5_ESaISB_EE8_M_eraseEPSt13_Rb_tree_nodeISB_E@Base 2.3.70.1
 _ZNSt8_Rb_treeINSt7__cxx1112basic_stringIcSt11char_traitsIcESaIcEEESt4pairIKS5_mESt10_Select1stIS8_ESt4lessIS5_ESaIS8_EE14_M_insert_nodeEPSt18_Rb_tree_node_baseSG_PSt13_Rb_tree_nodeIS8_E@Base 2.3.70.1
 _ZNSt8_Rb_treeINSt7__cxx1112basic_stringIcSt11char_traitsIcESaIcEEESt4pairIKS5_mESt10_Select1stIS8_ESt4lessIS5_ESaIS8_EE24_M_get_insert_unique_posERS7_@Base 2.3.70.1
 _ZNSt8_Rb_treeINSt7__cxx1112basic_stringIcSt11char_traitsIcESaIcEEESt4pairIKS5_mESt10_Select1stIS8_ESt4lessIS5_ESaIS8_EE29_M_get_insert_hint_unique_posESt23_Rb_tree_const_iteratorIS8_ERS7_@Base 2.3.70.1
 _ZNSt8_Rb_treeINSt7__cxx1112basic_stringIcSt11char_traitsIcESaIcEEESt4pairIKS5_mESt10_Select1stIS8_ESt4lessIS5_ESaIS8_EE8_M_eraseEPSt13_Rb_tree_nodeIS8_E@Base 2.3.70.1
 _ZNSt8_Rb_treeIiSt4pairIKiMN4yarp3dev17IJoypadControllerEFbRjEESt10_Select1stIS8_ESt4lessIiESaIS8_EE16_M_insert_uniqueIS0_IiS7_EEES0_ISt17_Rb_tree_iteratorIS8_EbEOT_@Base 2.3.70.1
 _ZNSt8_Rb_treeIiSt4pairIKiMN4yarp3dev17IJoypadControllerEFbRjEESt10_Select1stIS8_ESt4lessIiESaIS8_EE24_M_get_insert_unique_posERS1_@Base 2.3.70.1
 _ZNSt8_Rb_treeIiSt4pairIKiMN4yarp3dev17IJoypadControllerEFbRjEESt10_Select1stIS8_ESt4lessIiESaIS8_EE29_M_get_insert_hint_unique_posESt23_Rb_tree_const_iteratorIS8_ERS1_@Base 2.3.70.1
 _ZNSt8_Rb_treeIiSt4pairIKiMN4yarp3dev17IJoypadControllerEFbRjEESt10_Select1stIS8_ESt4lessIiESaIS8_EE8_M_eraseEPSt13_Rb_tree_nodeIS8_E@Base 2.3.70.1
 _ZNSt8_Rb_treeIiSt4pairIKiNSt7__cxx1112basic_stringIcSt11char_traitsIcESaIcEEEESt10_Select1stIS8_ESt4lessIiESaIS8_EE14_M_insert_nodeEPSt18_Rb_tree_node_baseSG_PSt13_Rb_tree_nodeIS8_E@Base 2.3.70.1
 _ZNSt8_Rb_treeIiSt4pairIKiNSt7__cxx1112basic_stringIcSt11char_traitsIcESaIcEEEESt10_Select1stIS8_ESt4lessIiESaIS8_EE24_M_get_insert_unique_posERS1_@Base 2.3.70.1
 _ZNSt8_Rb_treeIiSt4pairIKiNSt7__cxx1112basic_stringIcSt11char_traitsIcESaIcEEEESt10_Select1stIS8_ESt4lessIiESaIS8_EE29_M_get_insert_hint_unique_posESt23_Rb_tree_const_iteratorIS8_ERS1_@Base 2.3.70.1
 _ZNSt8_Rb_treeIiSt4pairIKiNSt7__cxx1112basic_stringIcSt11char_traitsIcESaIcEEEESt10_Select1stIS8_ESt4lessIiESaIS8_EE8_M_eraseEPSt13_Rb_tree_nodeIS8_E@Base 2.3.70.1
 _ZStplIcSt11char_traitsIcESaIcEENSt7__cxx1112basic_stringIT_T0_T1_EEOS8_PKS5_@Base 2.3.70.1
 _ZStplIcSt11char_traitsIcESaIcEENSt7__cxx1112basic_stringIT_T0_T1_EEPKS5_RKS8_@Base 2.3.70.1
 _ZStplIcSt11char_traitsIcESaIcEENSt7__cxx1112basic_stringIT_T0_T1_EERKS8_PKS5_@Base 2.3.70.1
 _ZStplIcSt11char_traitsIcESaIcEENSt7__cxx1112basic_stringIT_T0_T1_EERKS8_SA_@Base 2.3.70.1
 _ZTIN4yarp2os16PortablePairBaseE@Base 2.3.70.1
 _ZTIN4yarp2os18YarpPluginSelectorE@Base 2.3.70.1
 _ZTIN4yarp2os19AbstractContactableE@Base 2.3.70.1
 _ZTIN4yarp2os21UnbufferedContactableE@Base 2.3.70.1
 _ZTIN4yarp2os8PortableE@Base 2.3.70.1
 _ZTIN4yarp3dev10DevicePipeE@Base 2.3.70.1
 _ZTIN4yarp3dev10PolyDriverE@Base 2.3.70.1
 _ZTIN4yarp3dev11DeviceGroupE@Base 2.3.70.1
 _ZTIN4yarp3dev11IPWMControlE@Base 2.3.70.1
 _ZTIN4yarp3dev11IPidControlE@Base 2.3.70.1
 _ZTIN4yarp3dev11IRGBDSensorE@Base 2.3.70.1
 _ZTIN4yarp3dev12DeviceDriverE@Base 2.3.70.1
 _ZTIN4yarp3dev12IAudioRenderE@Base 2.3.70.1
 _ZTIN4yarp3dev12IControlModeE@Base 2.3.70.1
 _ZTIN4yarp3dev12ServerSerialE@Base 2.3.70.1
 _ZTIN4yarp3dev13DriverCreatorE@Base 2.3.70.1
 _ZTIN4yarp3dev13IAnalogSensorE@Base 2.3.70.1
 _ZTIN4yarp3dev13IControlMode2E@Base 2.3.70.1
 _ZTIN4yarp3dev13ISerialDeviceE@Base 2.3.70.1
 _ZTIN4yarp3dev13ServerGrabberE@Base 2.3.70.1
 _ZTIN4yarp3dev14IControlLimitsE@Base 2.3.70.1
 _ZTIN4yarp3dev14IEncodersTimedE@Base 2.3.70.1
 _ZTIN4yarp3dev14IGenericSensorE@Base 2.3.70.1
 _ZTIN4yarp3dev14IMotorEncodersE@Base 2.3.70.1
 _ZTIN4yarp3dev14IRangefinder2DE@Base 2.3.70.1
 _ZTIN4yarp3dev14ITorqueControlE@Base 2.3.70.1
 _ZTIN4yarp3dev14ImplementMotorE@Base 2.3.70.1
 _ZTIN4yarp3dev15DeviceResponderE@Base 2.3.70.1
 _ZTIN4yarp3dev15IControlLimits2E@Base 2.3.70.1
 _ZTIN4yarp3dev15ICurrentControlE@Base 2.3.70.1
 _ZTIN4yarp3dev15IFrameTransformE@Base 2.3.70.1
 _ZTIN4yarp3dev15IPositionDirectE@Base 2.3.70.1
 _ZTIN4yarp3dev15IPreciselyTimedE@Base 2.3.70.1
 _ZTIN4yarp3dev15ImplementDC1394E@Base 2.3.70.1
 _ZTIN4yarp3dev16IInteractionModeE@Base 2.3.70.1
 _ZTIN4yarp3dev16IMultipleWrapperE@Base 2.3.70.1
 _ZTIN4yarp3dev16IPositionControlE@Base 2.3.70.1
 _ZTIN4yarp3dev16IRemoteVariablesE@Base 2.3.70.1
 _ZTIN4yarp3dev16IRgbVisualParamsE@Base 2.3.70.1
 _ZTIN4yarp3dev16IVelocityControlE@Base 2.3.70.1
 _ZTIN4yarp3dev17DriverLinkCreatorE@Base 2.3.70.1
 _ZTIN4yarp3dev17IAmplifierControlE@Base 2.3.70.1
 _ZTIN4yarp3dev17IFrameWriterImageE@Base 2.3.70.1
 _ZTIN4yarp3dev17IImpedanceControlE@Base 2.3.70.1
 _ZTIN4yarp3dev17IJoypadControllerE@Base 2.3.70.1
 _ZTIN4yarp3dev17IPositionControl2E@Base 2.3.70.1
 _ZTIN4yarp3dev17IRemoteCalibratorE@Base 2.3.70.1
 _ZTIN4yarp3dev17IVelocityControl2E@Base 2.3.70.1
 _ZTIN4yarp3dev17ImplementAxisInfoE@Base 2.3.70.1
 _ZTIN4yarp3dev17StubDriverCreatorE@Base 2.3.70.1
 _ZTIN4yarp3dev18IAudioGrabberSoundE@Base 2.3.70.1
 _ZTIN4yarp3dev18IAudioVisualStreamE@Base 2.3.70.1
 _ZTIN4yarp3dev18IDepthVisualParamsE@Base 2.3.70.1
 _ZTIN4yarp3dev18IFrameGrabberImageE@Base 2.3.70.1
 _ZTIN4yarp3dev18RemoteFrameGrabberE@Base 2.3.70.1
 _ZTIN4yarp3dev18ServerFrameGrabberE@Base 2.3.70.1
 _ZTIN4yarp3dev19IAudioVisualGrabberE@Base 2.3.70.1
 _ZTIN4yarp3dev19IControlCalibrationE@Base 2.3.70.1
 _ZTIN4yarp3dev19ImplementPWMControlE@Base 2.3.70.1
 _ZTIN4yarp3dev19ImplementPidControlE@Base 2.3.70.1
 _ZTIN4yarp3dev20IControlCalibration2E@Base 2.3.70.1
 _ZTIN4yarp3dev20IVirtualAnalogSensorE@Base 2.3.70.1
 _ZTIN4yarp3dev20ImplementControlModeE@Base 2.3.70.1
 _ZTIN4yarp3dev21IFrameGrabberControlsE@Base 2.3.70.1
 _ZTIN4yarp3dev21IFrameGrabberImageRawE@Base 2.3.70.1
 _ZTIN4yarp3dev21ImplementControlMode2E@Base 2.3.70.1
 _ZTIN4yarp3dev22DeprecatedDeviceDriverE@Base 2.3.70.1
 _ZTIN4yarp3dev22IFrameGrabberControls2E@Base 2.3.70.1
 _ZTIN4yarp3dev22ImplementEncodersTimedE@Base 2.3.70.1
 _ZTIN4yarp3dev22ImplementMotorEncodersE@Base 2.3.70.1
 _ZTIN4yarp3dev22ImplementTorqueControlE@Base 2.3.70.1
 _ZTIN4yarp3dev23IFrameWriterAudioVisualE@Base 2.3.70.1
 _ZTIN4yarp3dev23ImplementControlLimits2E@Base 2.3.70.1
 _ZTIN4yarp3dev23ImplementCurrentControlE@Base 2.3.70.1
 _ZTIN4yarp3dev23ImplementPositionDirectE@Base 2.3.70.1
 _ZTIN4yarp3dev24ImplementInteractionModeE@Base 2.3.70.1
 _ZTIN4yarp3dev24ImplementRemoteVariablesE@Base 2.3.70.1
 _ZTIN4yarp3dev25ImplementImpedanceControlE@Base 2.3.70.1
 _ZTIN4yarp3dev25ImplementPositionControl2E@Base 2.3.70.1
 _ZTIN4yarp3dev25ImplementVelocityControl2E@Base 2.3.70.1
 _ZTIN4yarp3dev27IFrameGrabberControlsDC1394E@Base 2.3.70.1
 _ZTIN4yarp3dev28FrameGrabberControls2_ParserE@Base 2.3.70.1
 _ZTIN4yarp3dev28FrameGrabberControls2_SenderE@Base 2.3.70.1
 _ZTIN4yarp3dev32Implement_RgbVisualParams_ParserE@Base 2.3.70.1
 _ZTIN4yarp3dev32Implement_RgbVisualParams_SenderE@Base 2.3.70.1
 _ZTIN4yarp3dev34Implement_DepthVisualParams_ParserE@Base 2.3.70.1
 _ZTIN4yarp3dev34Implement_DepthVisualParams_SenderE@Base 2.3.70.1
 _ZTIN4yarp3dev4impl19RgbImageReader_ImplE@Base 2.3.70.1
 _ZTIN4yarp3dev4impl21FloatImageReader_ImplE@Base 2.3.70.1
 _ZTIN4yarp3dev6IMap2DE@Base 2.3.70.1
 _ZTIN4yarp3dev6IMotorE@Base 2.3.70.1
 _ZTIN4yarp3dev7DriversE@Base 2.3.70.1
 _ZTIN4yarp3dev8IBatteryE@Base 2.3.70.1
 _ZTIN4yarp3dev8IServiceE@Base 2.3.70.1
 _ZTIN4yarp3dev8IWrapperE@Base 2.3.70.1
 _ZTIN4yarp3dev9IAxisInfoE@Base 2.3.70.1
 _ZTIN4yarp3dev9IEncodersE@Base 2.3.70.1
 _ZTIN4yarp3dev9MapGrid2DE@Base 2.3.70.1
 _ZTIN4yarp3dev9TestMotorE@Base 2.3.70.1
 _ZTIN4yarp3sig7ImageOfINS0_8PixelRgbEEE@Base 2.3.70.1
 _ZTIN4yarp3sig7ImageOfIfEE@Base 2.3.70.1
 _ZTIN4yarp3sig7ImageOfIhEE@Base 2.3.70.1
 _ZTIN4yarp3sig9FlexImageE@Base 2.3.70.1
 _ZTIN4yarp4math5Vec2DIdEE@Base 2.3.70.1
 _ZTIN4yarp4math5Vec2DIiEE@Base 2.3.70.1
 _ZTSN4yarp2os16PortablePairBaseE@Base 2.3.70.1
 _ZTSN4yarp2os18YarpPluginSelectorE@Base 2.3.70.1
 _ZTSN4yarp2os19AbstractContactableE@Base 2.3.70.1
 _ZTSN4yarp2os21UnbufferedContactableE@Base 2.3.70.1
 _ZTSN4yarp2os8PortableE@Base 2.3.70.1
 _ZTSN4yarp3dev10DevicePipeE@Base 2.3.70.1
 _ZTSN4yarp3dev10PolyDriverE@Base 2.3.70.1
 _ZTSN4yarp3dev11DeviceGroupE@Base 2.3.70.1
 _ZTSN4yarp3dev11IPWMControlE@Base 2.3.70.1
 _ZTSN4yarp3dev11IPidControlE@Base 2.3.70.1
 _ZTSN4yarp3dev11IRGBDSensorE@Base 2.3.70.1
 _ZTSN4yarp3dev12DeviceDriverE@Base 2.3.70.1
 _ZTSN4yarp3dev12IAudioRenderE@Base 2.3.70.1
 _ZTSN4yarp3dev12IControlModeE@Base 2.3.70.1
 _ZTSN4yarp3dev12ServerSerialE@Base 2.3.70.1
 _ZTSN4yarp3dev13DriverCreatorE@Base 2.3.70.1
 _ZTSN4yarp3dev13IAnalogSensorE@Base 2.3.70.1
 _ZTSN4yarp3dev13IControlMode2E@Base 2.3.70.1
 _ZTSN4yarp3dev13ISerialDeviceE@Base 2.3.70.1
 _ZTSN4yarp3dev13ServerGrabberE@Base 2.3.70.1
 _ZTSN4yarp3dev14IControlLimitsE@Base 2.3.70.1
 _ZTSN4yarp3dev14IEncodersTimedE@Base 2.3.70.1
 _ZTSN4yarp3dev14IGenericSensorE@Base 2.3.70.1
 _ZTSN4yarp3dev14IMotorEncodersE@Base 2.3.70.1
 _ZTSN4yarp3dev14IRangefinder2DE@Base 2.3.70.1
 _ZTSN4yarp3dev14ITorqueControlE@Base 2.3.70.1
 _ZTSN4yarp3dev14ImplementMotorE@Base 2.3.70.1
 _ZTSN4yarp3dev15DeviceResponderE@Base 2.3.70.1
 _ZTSN4yarp3dev15IControlLimits2E@Base 2.3.70.1
 _ZTSN4yarp3dev15ICurrentControlE@Base 2.3.70.1
 _ZTSN4yarp3dev15IFrameTransformE@Base 2.3.70.1
 _ZTSN4yarp3dev15IPositionDirectE@Base 2.3.70.1
 _ZTSN4yarp3dev15IPreciselyTimedE@Base 2.3.70.1
 _ZTSN4yarp3dev15ImplementDC1394E@Base 2.3.70.1
 _ZTSN4yarp3dev16IInteractionModeE@Base 2.3.70.1
 _ZTSN4yarp3dev16IMultipleWrapperE@Base 2.3.70.1
 _ZTSN4yarp3dev16IPositionControlE@Base 2.3.70.1
 _ZTSN4yarp3dev16IRemoteVariablesE@Base 2.3.70.1
 _ZTSN4yarp3dev16IRgbVisualParamsE@Base 2.3.70.1
 _ZTSN4yarp3dev16IVelocityControlE@Base 2.3.70.1
 _ZTSN4yarp3dev17DriverLinkCreatorE@Base 2.3.70.1
 _ZTSN4yarp3dev17IAmplifierControlE@Base 2.3.70.1
 _ZTSN4yarp3dev17IFrameWriterImageE@Base 2.3.70.1
 _ZTSN4yarp3dev17IImpedanceControlE@Base 2.3.70.1
 _ZTSN4yarp3dev17IJoypadControllerE@Base 2.3.70.1
 _ZTSN4yarp3dev17IPositionControl2E@Base 2.3.70.1
 _ZTSN4yarp3dev17IRemoteCalibratorE@Base 2.3.70.1
 _ZTSN4yarp3dev17IVelocityControl2E@Base 2.3.70.1
 _ZTSN4yarp3dev17ImplementAxisInfoE@Base 2.3.70.1
 _ZTSN4yarp3dev17StubDriverCreatorE@Base 2.3.70.1
 _ZTSN4yarp3dev18IAudioGrabberSoundE@Base 2.3.70.1
 _ZTSN4yarp3dev18IAudioVisualStreamE@Base 2.3.70.1
 _ZTSN4yarp3dev18IDepthVisualParamsE@Base 2.3.70.1
 _ZTSN4yarp3dev18IFrameGrabberImageE@Base 2.3.70.1
 _ZTSN4yarp3dev18RemoteFrameGrabberE@Base 2.3.70.1
 _ZTSN4yarp3dev18ServerFrameGrabberE@Base 2.3.70.1
 _ZTSN4yarp3dev19IAudioVisualGrabberE@Base 2.3.70.1
 _ZTSN4yarp3dev19IControlCalibrationE@Base 2.3.70.1
 _ZTSN4yarp3dev19ImplementPWMControlE@Base 2.3.70.1
 _ZTSN4yarp3dev19ImplementPidControlE@Base 2.3.70.1
 _ZTSN4yarp3dev20IControlCalibration2E@Base 2.3.70.1
 _ZTSN4yarp3dev20IVirtualAnalogSensorE@Base 2.3.70.1
 _ZTSN4yarp3dev20ImplementControlModeE@Base 2.3.70.1
 _ZTSN4yarp3dev21IFrameGrabberControlsE@Base 2.3.70.1
 _ZTSN4yarp3dev21IFrameGrabberImageRawE@Base 2.3.70.1
 _ZTSN4yarp3dev21ImplementControlMode2E@Base 2.3.70.1
 _ZTSN4yarp3dev22DeprecatedDeviceDriverE@Base 2.3.70.1
 _ZTSN4yarp3dev22IFrameGrabberControls2E@Base 2.3.70.1
 _ZTSN4yarp3dev22ImplementEncodersTimedE@Base 2.3.70.1
 _ZTSN4yarp3dev22ImplementMotorEncodersE@Base 2.3.70.1
 _ZTSN4yarp3dev22ImplementTorqueControlE@Base 2.3.70.1
 _ZTSN4yarp3dev23IFrameWriterAudioVisualE@Base 2.3.70.1
 _ZTSN4yarp3dev23ImplementControlLimits2E@Base 2.3.70.1
 _ZTSN4yarp3dev23ImplementCurrentControlE@Base 2.3.70.1
 _ZTSN4yarp3dev23ImplementPositionDirectE@Base 2.3.70.1
 _ZTSN4yarp3dev24ImplementInteractionModeE@Base 2.3.70.1
 _ZTSN4yarp3dev24ImplementRemoteVariablesE@Base 2.3.70.1
 _ZTSN4yarp3dev25ImplementImpedanceControlE@Base 2.3.70.1
 _ZTSN4yarp3dev25ImplementPositionControl2E@Base 2.3.70.1
 _ZTSN4yarp3dev25ImplementVelocityControl2E@Base 2.3.70.1
 _ZTSN4yarp3dev27IFrameGrabberControlsDC1394E@Base 2.3.70.1
 _ZTSN4yarp3dev28FrameGrabberControls2_ParserE@Base 2.3.70.1
 _ZTSN4yarp3dev28FrameGrabberControls2_SenderE@Base 2.3.70.1
 _ZTSN4yarp3dev32Implement_RgbVisualParams_ParserE@Base 2.3.70.1
 _ZTSN4yarp3dev32Implement_RgbVisualParams_SenderE@Base 2.3.70.1
 _ZTSN4yarp3dev34Implement_DepthVisualParams_ParserE@Base 2.3.70.1
 _ZTSN4yarp3dev34Implement_DepthVisualParams_SenderE@Base 2.3.70.1
 _ZTSN4yarp3dev4impl19RgbImageReader_ImplE@Base 2.3.70.1
 _ZTSN4yarp3dev4impl21FloatImageReader_ImplE@Base 2.3.70.1
 _ZTSN4yarp3dev6IMap2DE@Base 2.3.70.1
 _ZTSN4yarp3dev6IMotorE@Base 2.3.70.1
 _ZTSN4yarp3dev7DriversE@Base 2.3.70.1
 _ZTSN4yarp3dev8IBatteryE@Base 2.3.70.1
 _ZTSN4yarp3dev8IServiceE@Base 2.3.70.1
 _ZTSN4yarp3dev8IWrapperE@Base 2.3.70.1
 _ZTSN4yarp3dev9IAxisInfoE@Base 2.3.70.1
 _ZTSN4yarp3dev9IEncodersE@Base 2.3.70.1
 _ZTSN4yarp3dev9MapGrid2DE@Base 2.3.70.1
 _ZTSN4yarp3dev9TestMotorE@Base 2.3.70.1
 _ZTSN4yarp3sig7ImageOfINS0_8PixelRgbEEE@Base 2.3.70.1
 _ZTSN4yarp3sig7ImageOfIfEE@Base 2.3.70.1
 _ZTSN4yarp3sig7ImageOfIhEE@Base 2.3.70.1
 _ZTSN4yarp3sig9FlexImageE@Base 2.3.70.1
 _ZTSN4yarp4math5Vec2DIdEE@Base 2.3.70.1
 _ZTSN4yarp4math5Vec2DIiEE@Base 2.3.70.1
 _ZTVN4yarp2os18YarpPluginSelectorE@Base 2.3.70.1
 _ZTVN4yarp2os21UnbufferedContactableE@Base 2.3.70.1
 _ZTVN4yarp2os8PortableE@Base 2.3.70.1
 _ZTVN4yarp3dev10DevicePipeE@Base 2.3.70.1
 _ZTVN4yarp3dev10PolyDriverE@Base 2.3.70.1
 _ZTVN4yarp3dev11DeviceGroupE@Base 2.3.70.1
 _ZTVN4yarp3dev11IPWMControlE@Base 2.3.70.1
 _ZTVN4yarp3dev11IPidControlE@Base 2.3.70.1
 _ZTVN4yarp3dev12DeviceDriverE@Base 2.3.70.1
 _ZTVN4yarp3dev12ServerSerialE@Base 2.3.70.1
 _ZTVN4yarp3dev13IControlMode2E@Base 2.3.70.1
 _ZTVN4yarp3dev13ISerialDeviceE@Base 2.3.70.1
 _ZTVN4yarp3dev13ServerGrabberE@Base 2.3.70.1
 _ZTVN4yarp3dev14IEncodersTimedE@Base 2.3.70.1
 _ZTVN4yarp3dev14IMotorEncodersE@Base 2.3.70.1
 _ZTVN4yarp3dev14ITorqueControlE@Base 2.3.70.1
 _ZTVN4yarp3dev14ImplementMotorE@Base 2.3.70.1
 _ZTVN4yarp3dev15DeviceResponderE@Base 2.3.70.1
 _ZTVN4yarp3dev15IControlLimits2E@Base 2.3.70.1
 _ZTVN4yarp3dev15ICurrentControlE@Base 2.3.70.1
 _ZTVN4yarp3dev15IFrameTransformE@Base 2.3.70.1
 _ZTVN4yarp3dev15IPositionDirectE@Base 2.3.70.1
 _ZTVN4yarp3dev15IPreciselyTimedE@Base 2.3.70.1
 _ZTVN4yarp3dev15ImplementDC1394E@Base 2.3.70.1
 _ZTVN4yarp3dev16IInteractionModeE@Base 2.3.70.1
 _ZTVN4yarp3dev16IMultipleWrapperE@Base 2.3.70.1
 _ZTVN4yarp3dev17DriverLinkCreatorE@Base 2.3.70.1
 _ZTVN4yarp3dev17IAmplifierControlE@Base 2.3.70.1
 _ZTVN4yarp3dev17IImpedanceControlE@Base 2.3.70.1
 _ZTVN4yarp3dev17IJoypadControllerE@Base 2.3.70.1
 _ZTVN4yarp3dev17IPositionControl2E@Base 2.3.70.1
 _ZTVN4yarp3dev17IRemoteCalibratorE@Base 2.3.70.1
 _ZTVN4yarp3dev17IVelocityControl2E@Base 2.3.70.1
 _ZTVN4yarp3dev17ImplementAxisInfoE@Base 2.3.70.1
 _ZTVN4yarp3dev17StubDriverCreatorE@Base 2.3.70.1
 _ZTVN4yarp3dev18IFrameGrabberImageE@Base 2.3.70.1
 _ZTVN4yarp3dev18RemoteFrameGrabberE@Base 2.3.70.1
 _ZTVN4yarp3dev18ServerFrameGrabberE@Base 2.3.70.1
 _ZTVN4yarp3dev19IControlCalibrationE@Base 2.3.70.1
 _ZTVN4yarp3dev19ImplementPWMControlE@Base 2.3.70.1
 _ZTVN4yarp3dev19ImplementPidControlE@Base 2.3.70.1
 _ZTVN4yarp3dev20IControlCalibration2E@Base 2.3.70.1
 _ZTVN4yarp3dev20ImplementControlModeE@Base 2.3.70.1
 _ZTVN4yarp3dev21ImplementControlMode2E@Base 2.3.70.1
 _ZTVN4yarp3dev22ImplementEncodersTimedE@Base 2.3.70.1
 _ZTVN4yarp3dev22ImplementMotorEncodersE@Base 2.3.70.1
 _ZTVN4yarp3dev22ImplementTorqueControlE@Base 2.3.70.1
 _ZTVN4yarp3dev23ImplementControlLimits2E@Base 2.3.70.1
 _ZTVN4yarp3dev23ImplementCurrentControlE@Base 2.3.70.1
 _ZTVN4yarp3dev23ImplementPositionDirectE@Base 2.3.70.1
 _ZTVN4yarp3dev24ImplementInteractionModeE@Base 2.3.70.1
 _ZTVN4yarp3dev24ImplementRemoteVariablesE@Base 2.3.70.1
 _ZTVN4yarp3dev25ImplementImpedanceControlE@Base 2.3.70.1
 _ZTVN4yarp3dev25ImplementPositionControl2E@Base 2.3.70.1
 _ZTVN4yarp3dev25ImplementVelocityControl2E@Base 2.3.70.1
 _ZTVN4yarp3dev28FrameGrabberControls2_ParserE@Base 2.3.70.1
 _ZTVN4yarp3dev28FrameGrabberControls2_SenderE@Base 2.3.70.1
 _ZTVN4yarp3dev32Implement_RgbVisualParams_ParserE@Base 2.3.70.1
 _ZTVN4yarp3dev32Implement_RgbVisualParams_SenderE@Base 2.3.70.1
 _ZTVN4yarp3dev34Implement_DepthVisualParams_ParserE@Base 2.3.70.1
 _ZTVN4yarp3dev34Implement_DepthVisualParams_SenderE@Base 2.3.70.1
 _ZTVN4yarp3dev4impl19RgbImageReader_ImplE@Base 2.3.70.1
 _ZTVN4yarp3dev4impl21FloatImageReader_ImplE@Base 2.3.70.1
 _ZTVN4yarp3dev6IMotorE@Base 2.3.70.1
 _ZTVN4yarp3dev7DriversE@Base 2.3.70.1
 _ZTVN4yarp3dev8IWrapperE@Base 2.3.70.1
 _ZTVN4yarp3dev9IAxisInfoE@Base 2.3.70.1
 _ZTVN4yarp3dev9MapGrid2DE@Base 2.3.70.1
 _ZTVN4yarp3dev9TestMotorE@Base 2.3.70.1
 _ZTVN4yarp3sig7ImageOfINS0_8PixelRgbEEE@Base 2.3.70.1
 _ZTVN4yarp3sig7ImageOfIfEE@Base 2.3.70.1
 _ZTVN4yarp3sig7ImageOfIhEE@Base 2.3.70.1
 _ZTVN4yarp3sig9FlexImageE@Base 2.3.70.1
 _ZTVN4yarp4math5Vec2DIdEE@Base 2.3.70.1
 _ZTVN4yarp4math5Vec2DIiEE@Base 2.3.70.1
 _ZThn16_N4yarp3dev12ServerSerial3runEv@Base 2.3.70.1
 _ZThn16_N4yarp3dev12ServerSerialD0Ev@Base 2.3.70.1
 _ZThn16_N4yarp3dev12ServerSerialD1Ev@Base 2.3.70.1
 _ZThn16_N4yarp3dev13ServerGrabber9attachAllERKNS0_14PolyDriverListE@Base 2.3.70.1
 _ZThn16_N4yarp3dev13ServerGrabber9detachAllEv@Base 2.3.70.1
 _ZThn16_N4yarp3dev13ServerGrabberD0Ev@Base 2.3.70.1
 _ZThn16_N4yarp3dev13ServerGrabberD1Ev@Base 2.3.70.1
 _ZThn240_N4yarp3dev18ServerFrameGrabber8getImageERNS_3sig7ImageOfINS2_8PixelRgbEEE@Base 2.3.70.1
 _ZThn240_NK4yarp3dev18ServerFrameGrabber5widthEv@Base 2.3.70.1
 _ZThn240_NK4yarp3dev18ServerFrameGrabber6heightEv@Base 2.3.70.1
 _ZThn248_N4yarp3dev18ServerFrameGrabber13stopRecordingEv@Base 2.3.70.1
 _ZThn248_N4yarp3dev18ServerFrameGrabber14startRecordingEv@Base 2.3.70.1
 _ZThn248_N4yarp3dev18ServerFrameGrabber8getSoundERNS_3sig5SoundE@Base 2.3.70.1
 _ZThn24_N4yarp3dev13ServerGrabber10threadInitEv@Base 2.3.70.1
 _ZThn24_N4yarp3dev13ServerGrabber13threadReleaseEv@Base 2.3.70.1
 _ZThn24_N4yarp3dev13ServerGrabber3runEv@Base 2.3.70.1
 _ZThn24_N4yarp3dev13ServerGrabberD0Ev@Base 2.3.70.1
 _ZThn24_N4yarp3dev13ServerGrabberD1Ev@Base 2.3.70.1
 _ZThn256_N4yarp3dev18ServerFrameGrabber14getAudioVisualERNS_3sig7ImageOfINS2_8PixelRgbEEERNS2_5SoundE@Base 2.3.70.1
 _ZThn264_N4yarp3dev18ServerFrameGrabber10getShutterEv@Base 2.3.70.1
 _ZThn264_N4yarp3dev18ServerFrameGrabber10setShutterEd@Base 2.3.70.1
 _ZThn264_N4yarp3dev18ServerFrameGrabber11getExposureEv@Base 2.3.70.1
 _ZThn264_N4yarp3dev18ServerFrameGrabber11setExposureEd@Base 2.3.70.1
 _ZThn264_N4yarp3dev18ServerFrameGrabber12getSharpnessEv@Base 2.3.70.1
 _ZThn264_N4yarp3dev18ServerFrameGrabber12setSharpnessEd@Base 2.3.70.1
 _ZThn264_N4yarp3dev18ServerFrameGrabber13getBrightnessEv@Base 2.3.70.1
 _ZThn264_N4yarp3dev18ServerFrameGrabber13getSaturationEv@Base 2.3.70.1
 _ZThn264_N4yarp3dev18ServerFrameGrabber13setBrightnessEd@Base 2.3.70.1
 _ZThn264_N4yarp3dev18ServerFrameGrabber13setSaturationEd@Base 2.3.70.1
 _ZThn264_N4yarp3dev18ServerFrameGrabber15getWhiteBalanceERdS2_@Base 2.3.70.1
 _ZThn264_N4yarp3dev18ServerFrameGrabber15setWhiteBalanceEdd@Base 2.3.70.1
 _ZThn264_N4yarp3dev18ServerFrameGrabber6getHueEv@Base 2.3.70.1
 _ZThn264_N4yarp3dev18ServerFrameGrabber6setHueEd@Base 2.3.70.1
 _ZThn264_N4yarp3dev18ServerFrameGrabber7getGainEv@Base 2.3.70.1
 _ZThn264_N4yarp3dev18ServerFrameGrabber7getIrisEv@Base 2.3.70.1
 _ZThn264_N4yarp3dev18ServerFrameGrabber7setGainEd@Base 2.3.70.1
 _ZThn264_N4yarp3dev18ServerFrameGrabber7setIrisEd@Base 2.3.70.1
 _ZThn264_N4yarp3dev18ServerFrameGrabber8getGammaEv@Base 2.3.70.1
 _ZThn264_N4yarp3dev18ServerFrameGrabber8setGammaEd@Base 2.3.70.1
 _ZThn272_N4yarp3dev18ServerFrameGrabber11stopServiceEv@Base 2.3.70.1
 _ZThn272_N4yarp3dev18ServerFrameGrabber12startServiceEv@Base 2.3.70.1
 _ZThn272_N4yarp3dev18ServerFrameGrabber13updateServiceEv@Base 2.3.70.1
 _ZThn280_N4yarp3dev18ServerFrameGrabber8getDatumERNS_3sig7ImageOfINS2_8PixelRgbEEE@Base 2.3.70.1
 _ZThn288_N4yarp3dev18ServerFrameGrabber8getDatumERNS_3sig7ImageOfIhEE@Base 2.3.70.1
 _ZThn296_N4yarp3dev18ServerFrameGrabber8getDatumERNS_3sig5SoundE@Base 2.3.70.1
 _ZThn304_N4yarp3dev18ServerFrameGrabber8getDatumERNS_2os12PortablePairINS_3sig7ImageOfINS4_8PixelRgbEEENS4_5SoundEEE@Base 2.3.70.1
 _ZThn312_N4yarp3dev18ServerFrameGrabber8getDatumERNS_3sig7ImageOfINS2_8PixelRgbEEERNS2_5SoundE@Base 2.3.70.1
 _ZThn8_N4yarp3dev10DevicePipe13updateServiceEv@Base 2.3.70.1
 _ZThn8_N4yarp3dev11DeviceGroup12startServiceEv@Base 2.3.70.1
 _ZThn8_N4yarp3dev11DeviceGroup13updateServiceEv@Base 2.3.70.1
 _ZThn8_N4yarp3dev11DeviceGroupD0Ev@Base 2.3.70.1
 _ZThn8_N4yarp3dev11DeviceGroupD1Ev@Base 2.3.70.1
 _ZThn8_N4yarp3dev12ServerSerial11receiveCharERc@Base 2.3.70.1
 _ZThn8_N4yarp3dev12ServerSerial11receiveLineEPci@Base 2.3.70.1
 _ZThn8_N4yarp3dev12ServerSerial12receiveBytesEPhi@Base 2.3.70.1
 _ZThn8_N4yarp3dev12ServerSerial4sendEPcm@Base 2.3.70.1
 _ZThn8_N4yarp3dev12ServerSerial4sendERKNS_2os6BottleE@Base 2.3.70.1
 _ZThn8_N4yarp3dev12ServerSerial5flushEv@Base 2.3.70.1
 _ZThn8_N4yarp3dev12ServerSerial6setDTREb@Base 2.3.70.1
 _ZThn8_N4yarp3dev12ServerSerial7receiveERNS_2os6BottleE@Base 2.3.70.1
 _ZThn8_N4yarp3dev12ServerSerialD0Ev@Base 2.3.70.1
 _ZThn8_N4yarp3dev12ServerSerialD1Ev@Base 2.3.70.1
 _ZThn8_N4yarp3dev13ServerGrabber6attachEPNS0_10PolyDriverE@Base 2.3.70.1
 _ZThn8_N4yarp3dev13ServerGrabber6detachEv@Base 2.3.70.1
 _ZThn8_N4yarp3dev13ServerGrabberD0Ev@Base 2.3.70.1
 _ZThn8_N4yarp3dev13ServerGrabberD1Ev@Base 2.3.70.1
 _ZThn8_N4yarp3dev18ServerFrameGrabber7respondERKNS_2os6BottleERS3_@Base 2.3.70.1
 _ZThn8_N4yarp3dev9MapGrid2D5writeERNS_2os16ConnectionWriterE@Base 2.3.70.1
 _ZThn8_N4yarp3dev9MapGrid2DD0Ev@Base 2.3.70.1
 _ZThn8_N4yarp3dev9MapGrid2DD1Ev@Base 2.3.70.1
