libYARP_math.so.1 libyarp-math1 #MINVER#
 _ZN4yarp4math10RandScalar3getEdd@Base 2.3.65
 _ZN4yarp4math10RandScalar3getEv@Base 2.3.65
 _ZN4yarp4math10RandScalar4initEi@Base 2.3.65
 _ZN4yarp4math10RandScalar4initEv@Base 2.3.65
 _ZN4yarp4math10RandScalarC1Ei@Base 2.3.65
 _ZN4yarp4math10RandScalarC1Ev@Base 2.3.65
 _ZN4yarp4math10RandScalarC2Ei@Base 2.3.65
 _ZN4yarp4math10RandScalarC2Ev@Base 2.3.65
 _ZN4yarp4math10RandScalarD1Ev@Base 2.3.65
 _ZN4yarp4math10RandScalarD2Ev@Base 2.3.65
 _ZN4yarp4math10adjointInvERKNS_3sig6MatrixE@Base 2.3.65
 _ZN4yarp4math10pinvDampedERKNS_3sig6MatrixERNS1_6VectorEd@Base 2.3.65
 _ZN4yarp4math10pinvDampedERKNS_3sig6MatrixERS2_RNS1_6VectorEd@Base 2.3.65
 _ZN4yarp4math10pinvDampedERKNS_3sig6MatrixERS2_d@Base 2.3.65
 _ZN4yarp4math10pinvDampedERKNS_3sig6MatrixEd@Base 2.3.65
 _ZN4yarp4math11RandnScalar3getEdd@Base 2.3.65
 _ZN4yarp4math11RandnScalar4initEi@Base 2.3.65
 _ZN4yarp4math11RandnScalar4initEv@Base 2.3.65
 _ZN4yarp4math11RandnScalarC1Ei@Base 2.3.65
 _ZN4yarp4math11RandnScalarC1Ev@Base 2.3.65
 _ZN4yarp4math11RandnScalarC2Ei@Base 2.3.65
 _ZN4yarp4math11RandnScalarC2Ev@Base 2.3.65
 _ZN4yarp4math11RandnScalarD1Ev@Base 2.3.65
 _ZN4yarp4math11RandnScalarD2Ev@Base 2.3.65
 _ZN4yarp4math11eigenValuesERKNS_3sig6MatrixERNS1_6VectorES6_@Base 2.3.65
 _ZN4yarp4math12eingenValuesERKNS_3sig6MatrixERNS1_6VectorES6_@Base 2.3.65
 _ZN4yarp4math12outerProductERKNS_3sig6VectorES4_@Base 2.3.65
 _ZN4yarp4math16projectionMatrixERKNS_3sig6MatrixERS2_d@Base 2.3.65
 _ZN4yarp4math16projectionMatrixERKNS_3sig6MatrixEd@Base 2.3.65
 _ZN4yarp4math18crossProductMatrixERKNS_3sig6VectorE@Base 2.3.65
 _ZN4yarp4math18crossProductMatrixERKNS_3sig6VectorERNS1_6MatrixE@Base 2.3.65
 _ZN4yarp4math19nullspaceProjectionERKNS_3sig6MatrixERS2_d@Base 2.3.65
 _ZN4yarp4math19nullspaceProjectionERKNS_3sig6MatrixEd@Base 2.3.65
 _ZN4yarp4math3SVDERKNS_3sig6MatrixERS2_RNS1_6VectorES5_@Base 2.3.65
 _ZN4yarp4math3catERKNS_3sig6MatrixERKNS1_6VectorE@Base 2.3.65
 _ZN4yarp4math3catERKNS_3sig6MatrixES4_@Base 2.3.65
 _ZN4yarp4math3catERKNS_3sig6VectorERKNS1_6MatrixE@Base 2.3.65
 _ZN4yarp4math3catERKNS_3sig6VectorES4_@Base 2.3.65
 _ZN4yarp4math3catERKNS_3sig6VectorEd@Base 2.3.65
 _ZN4yarp4math3catEdRKNS_3sig6VectorE@Base 2.3.65
 _ZN4yarp4math3catEdd@Base 2.3.65
 _ZN4yarp4math3catEddd@Base 2.3.65
 _ZN4yarp4math3catEdddd@Base 2.3.65
 _ZN4yarp4math3catEddddd@Base 2.3.65
 _ZN4yarp4math3detERKNS_3sig6MatrixE@Base 2.3.65
 _ZN4yarp4math3dotERKNS_3sig6VectorES4_@Base 2.3.65
 _ZN4yarp4math3eyeEi@Base 2.3.65
 _ZN4yarp4math3eyeEii@Base 2.3.65
 _ZN4yarp4math4Rand4initEi@Base 2.3.65
 _ZN4yarp4math4Rand4initEv@Base 2.3.65
 _ZN4yarp4math4Rand6matrixEii@Base 2.3.65
 _ZN4yarp4math4Rand6scalarEdd@Base 2.3.65
 _ZN4yarp4math4Rand6scalarEv@Base 2.3.65
 _ZN4yarp4math4Rand6vectorERKNS_3sig6VectorES5_@Base 2.3.65
 _ZN4yarp4math4Rand6vectorEi@Base 2.3.65
 _ZN4yarp4math4impl10RandVector3getERKNS_3sig6VectorES6_@Base 2.3.65
 _ZN4yarp4math4impl10RandVector3getEv@Base 2.3.65
 _ZN4yarp4math4impl10RandVector4initEi@Base 2.3.65
 _ZN4yarp4math4impl10RandVector4initEv@Base 2.3.65
 _ZN4yarp4math4impl10RandVector6resizeEi@Base 2.3.65
 _ZN4yarp4math4impl10RandVectorC1Ei@Base 2.3.65
 _ZN4yarp4math4impl10RandVectorC2Ei@Base 2.3.65
 _ZN4yarp4math4impl11RandnVector3getERKNS_3sig6VectorES6_@Base 2.3.65
 _ZN4yarp4math4impl11RandnVector3getEdd@Base 2.3.65
 _ZN4yarp4math4impl11RandnVector4initEi@Base 2.3.65
 _ZN4yarp4math4impl11RandnVector4initEv@Base 2.3.65
 _ZN4yarp4math4impl11RandnVector6resizeEi@Base 2.3.65
 _ZN4yarp4math4impl11RandnVectorC1Ei@Base 2.3.65
 _ZN4yarp4math4impl11RandnVectorC2Ei@Base 2.3.65
 _ZN4yarp4math4normERKNS_3sig6VectorE@Base 2.3.65
 _ZN4yarp4math4onesEi@Base 2.3.65
 _ZN4yarp4math4pileERKNS_3sig6MatrixERKNS1_6VectorE@Base 2.3.65
 _ZN4yarp4math4pileERKNS_3sig6MatrixES4_@Base 2.3.65
 _ZN4yarp4math4pileERKNS_3sig6VectorERKNS1_6MatrixE@Base 2.3.65
 _ZN4yarp4math4pileERKNS_3sig6VectorES4_@Base 2.3.65
 _ZN4yarp4math4pinvERKNS_3sig6MatrixERNS1_6VectorEd@Base 2.3.65
 _ZN4yarp4math4pinvERKNS_3sig6MatrixERS2_RNS1_6VectorEd@Base 2.3.65
 _ZN4yarp4math4pinvERKNS_3sig6MatrixERS2_d@Base 2.3.65
 _ZN4yarp4math4pinvERKNS_3sig6MatrixEd@Base 2.3.65
 _ZN4yarp4math4signERKNS_3sig6VectorE@Base 2.3.65
 _ZN4yarp4math4signERKd@Base 2.3.65
 _ZN4yarp4math5crossERKNS_3sig6VectorES4_@Base 2.3.65
 _ZN4yarp4math5luinvERKNS_3sig6MatrixE@Base 2.3.65
 _ZN4yarp4math5norm2ERKNS_3sig6VectorE@Base 2.3.65
 _ZN4yarp4math5zerosEi@Base 2.3.65
 _ZN4yarp4math5zerosEii@Base 2.3.65
 _ZN4yarp4math6SE3invERKNS_3sig6MatrixE@Base 2.3.65
 _ZN4yarp4math6SVDModERKNS_3sig6MatrixERS2_RNS1_6VectorES5_@Base 2.3.65
 _ZN4yarp4math7adjointERKNS_3sig6MatrixE@Base 2.3.65
 _ZN4yarp4math7dcm2rpyERKNS_3sig6MatrixE@Base 2.3.65
 _ZN4yarp4math7findMaxERKNS_3sig6VectorE@Base 2.3.65
 _ZN4yarp4math7findMinERKNS_3sig6VectorE@Base 2.3.65
 _ZN4yarp4math7rpy2dcmERKNS_3sig6VectorE@Base 2.3.65
 _ZN4yarp4math8NormRand4initEi@Base 2.3.65
 _ZN4yarp4math8NormRand4initEv@Base 2.3.65
 _ZN4yarp4math8NormRand6matrixEiidd@Base 2.3.65
 _ZN4yarp4math8NormRand6scalarEdd@Base 2.3.65
 _ZN4yarp4math8NormRand6vectorERKNS_3sig6VectorES5_@Base 2.3.65
 _ZN4yarp4math8NormRand6vectorEidd@Base 2.3.65
 _ZN4yarp4math8axis2dcmERKNS_3sig6VectorE@Base 2.3.65
 _ZN4yarp4math8dcm2axisERKNS_3sig6MatrixE@Base 2.3.65
 _ZN4yarp4math8dcm2quatERKNS_3sig6MatrixE@Base 2.3.65
 _ZN4yarp4math8quat2dcmERKNS_3sig6VectorE@Base 2.3.65
 _ZN4yarp4math9SVDJacobiERKNS_3sig6MatrixERS2_RNS1_6VectorES5_@Base 2.3.65
 _ZN4yarp4math9dcm2eulerERKNS_3sig6MatrixE@Base 2.3.65
 _ZN4yarp4math9euler2dcmERKNS_3sig6VectorE@Base 2.3.65
 _ZN4yarp4mathdVERNS_3sig6MatrixEd@Base 2.3.65
 _ZN4yarp4mathdVERNS_3sig6VectorERKS2_@Base 2.3.65
 _ZN4yarp4mathdVERNS_3sig6VectorEd@Base 2.3.65
 _ZN4yarp4mathdvERKNS_3sig6MatrixEd@Base 2.3.65
 _ZN4yarp4mathdvERKNS_3sig6VectorES4_@Base 2.3.65
 _ZN4yarp4mathdvERKNS_3sig6VectorEd@Base 2.3.65
 _ZN4yarp4mathmIERNS_3sig6MatrixERKS2_@Base 2.3.65
 _ZN4yarp4mathmIERNS_3sig6VectorERKS2_@Base 2.3.65
 _ZN4yarp4mathmIERNS_3sig6VectorERKd@Base 2.3.65
 _ZN4yarp4mathmLERNS_3sig6MatrixERKS2_@Base 2.3.65
 _ZN4yarp4mathmLERNS_3sig6MatrixEd@Base 2.3.65
 _ZN4yarp4mathmLERNS_3sig6VectorERKNS1_6MatrixE@Base 2.3.65
 _ZN4yarp4mathmLERNS_3sig6VectorERKS2_@Base 2.3.65
 _ZN4yarp4mathmLERNS_3sig6VectorEd@Base 2.3.65
 _ZN4yarp4mathmiERKNS_3sig6MatrixES4_@Base 2.3.65
 _ZN4yarp4mathmiERKNS_3sig6VectorERKd@Base 2.3.65
 _ZN4yarp4mathmiERKNS_3sig6VectorES4_@Base 2.3.65
 _ZN4yarp4mathmiERKdRKNS_3sig6VectorE@Base 2.3.65
 _ZN4yarp4mathmlERKNS_3sig6MatrixERKNS1_6VectorE@Base 2.3.65
 _ZN4yarp4mathmlERKNS_3sig6MatrixES4_@Base 2.3.65
 _ZN4yarp4mathmlERKNS_3sig6MatrixEd@Base 2.3.65
 _ZN4yarp4mathmlERKNS_3sig6VectorERKNS1_6MatrixE@Base 2.3.65
 _ZN4yarp4mathmlERKNS_3sig6VectorES4_@Base 2.3.65
 _ZN4yarp4mathmlERKNS_3sig6VectorEd@Base 2.3.65
 _ZN4yarp4mathmlEdRKNS_3sig6MatrixE@Base 2.3.65
 _ZN4yarp4mathmlEdRKNS_3sig6VectorE@Base 2.3.65
 _ZN4yarp4mathpLERNS_3sig6MatrixERKS2_@Base 2.3.65
 _ZN4yarp4mathpLERNS_3sig6VectorERKS2_@Base 2.3.65
 _ZN4yarp4mathpLERNS_3sig6VectorERKd@Base 2.3.65
 _ZN4yarp4mathplERKNS_3sig6MatrixES4_@Base 2.3.65
 _ZN4yarp4mathplERKNS_3sig6VectorERKd@Base 2.3.65
 _ZN4yarp4mathplERKNS_3sig6VectorES4_@Base 2.3.65
 _ZN4yarp4mathplERKdRKNS_3sig6VectorE@Base 2.3.65
 _ZTIN4yarp2os8PortableE@Base 2.3.65
 _ZTSN4yarp2os8PortableE@Base 2.3.65
 _ZTVN4yarp2os8PortableE@Base 2.3.65
