libYARP_OS.so.1 libyarp-os1 #MINVER#
 _Z16yarp_print_traceP8_IO_FILEPKci@Base 2.3.66
 _Z26typedReaderMissingCallbackv@Base 2.3.66
 _ZN17YarpRunInfoVector11CleanZombieEi@Base 2.3.66
 _ZN17YarpRunInfoVector2PSEv@Base 2.3.66
 _ZN17YarpRunInfoVector3AddEP15YarpRunProcInfo@Base 2.3.66
 _ZN17YarpRunInfoVector4PackEv@Base 2.3.66
 _ZN17YarpRunInfoVector6SignalERN4yarp2os11ConstStringEi@Base 2.3.66
 _ZN17YarpRunInfoVector7KillallEi@Base 2.3.66
 _ZN17YarpRunInfoVector9IsRunningERN4yarp2os11ConstStringE@Base 2.3.66
 _ZN17YarpRunInfoVectorC1Ev@Base 2.3.66
 _ZN17YarpRunInfoVectorC2Ev@Base 2.3.66
 _ZN17YarpRunInfoVectorD1Ev@Base 2.3.66
 _ZN17YarpRunInfoVectorD2Ev@Base 2.3.66
 _ZN20ACE_Log_Category_TSS3logE16ACE_Log_PriorityPKcz@Base 2.3.66
 _ZN4yarp2os10NullStream11beginPacketEv@Base 2.3.66
 _ZN4yarp2os10NullStream14getInputStreamEv@Base 2.3.66
 _ZN4yarp2os10NullStream15getLocalAddressEv@Base 2.3.66
 _ZN4yarp2os10NullStream15getOutputStreamEv@Base 2.3.66
 _ZN4yarp2os10NullStream16getRemoteAddressEv@Base 2.3.66
 _ZN4yarp2os10NullStream4isOkEv@Base 2.3.66
 _ZN4yarp2os10NullStream4readERKNS0_5BytesE@Base 2.3.66
 _ZN4yarp2os10NullStream5closeEv@Base 2.3.66
 _ZN4yarp2os10NullStream5resetEv@Base 2.3.66
 _ZN4yarp2os10NullStream5writeERKNS0_5BytesE@Base 2.3.66
 _ZN4yarp2os10NullStream9endPacketEv@Base 2.3.66
 _ZN4yarp2os10NullStreamD0Ev@Base 2.3.66
 _ZN4yarp2os10NullStreamD1Ev@Base 2.3.66
 _ZN4yarp2os10NullStreamD2Ev@Base 2.3.66
 _ZN4yarp2os10PortReaderD0Ev@Base 2.3.66
 _ZN4yarp2os10PortReaderD1Ev@Base 2.3.66
 _ZN4yarp2os10PortReaderD2Ev@Base 2.3.66
 _ZN4yarp2os10PortReportD0Ev@Base 2.3.66
 _ZN4yarp2os10PortReportD1Ev@Base 2.3.66
 _ZN4yarp2os10PortReportD2Ev@Base 2.3.66
 _ZN4yarp2os10PortWriter12onCompletionEv@Base 2.3.66
 _ZN4yarp2os10PortWriter14onCommencementEv@Base 2.3.66
 _ZN4yarp2os10PortWriterD0Ev@Base 2.3.66
 _ZN4yarp2os10PortWriterD1Ev@Base 2.3.66
 _ZN4yarp2os10PortWriterD2Ev@Base 2.3.66
 _ZN4yarp2os10RateThread10afterStartEb@Base 2.3.66
 _ZN4yarp2os10RateThread10getEstUsedERdS2_@Base 2.3.66
 _ZN4yarp2os10RateThread10getEstUsedEv@Base 2.3.66
 _ZN4yarp2os10RateThread10threadInitEv@Base 2.3.66
 _ZN4yarp2os10RateThread11beforeStartEv@Base 2.3.66
 _ZN4yarp2os10RateThread11getPriorityEv@Base 2.3.66
 _ZN4yarp2os10RateThread11isSuspendedEv@Base 2.3.66
 _ZN4yarp2os10RateThread11setPriorityEii@Base 2.3.66
 _ZN4yarp2os10RateThread12getEstPeriodERdS2_@Base 2.3.66
 _ZN4yarp2os10RateThread12getEstPeriodEv@Base 2.3.66
 _ZN4yarp2os10RateThread13getIterationsEv@Base 2.3.66
 _ZN4yarp2os10RateThread13threadReleaseEv@Base 2.3.66
 _ZN4yarp2os10RateThread4joinEd@Base 2.3.66
 _ZN4yarp2os10RateThread4stepEv@Base 2.3.66
 _ZN4yarp2os10RateThread4stopEv@Base 2.3.66
 _ZN4yarp2os10RateThread5startEv@Base 2.3.66
 _ZN4yarp2os10RateThread6resumeEv@Base 2.3.66
 _ZN4yarp2os10RateThread7getRateEv@Base 2.3.66
 _ZN4yarp2os10RateThread7setRateEi@Base 2.3.66
 _ZN4yarp2os10RateThread7suspendEv@Base 2.3.66
 _ZN4yarp2os10RateThread9askToStopEv@Base 2.3.66
 _ZN4yarp2os10RateThread9getPolicyEv@Base 2.3.66
 _ZN4yarp2os10RateThread9isRunningEv@Base 2.3.66
 _ZN4yarp2os10RateThread9resetStatEv@Base 2.3.66
 _ZN4yarp2os10RateThreadC1Ei@Base 2.3.66
 _ZN4yarp2os10RateThreadC2Ei@Base 2.3.66
 _ZN4yarp2os10RateThreadD0Ev@Base 2.3.66
 _ZN4yarp2os10RateThreadD1Ev@Base 2.3.66
 _ZN4yarp2os10RateThreadD2Ev@Base 2.3.66
 _ZN4yarp2os10Searchable10setMonitorEPNS0_13SearchMonitorEPKc@Base 2.3.66
 _ZN4yarp2os10SearchableC1Ev@Base 2.3.66
 _ZN4yarp2os10SearchableC2Ev@Base 2.3.66
 _ZN4yarp2os10SearchableD0Ev@Base 2.3.66
 _ZN4yarp2os10SearchableD1Ev@Base 2.3.66
 _ZN4yarp2os10SearchableD2Ev@Base 2.3.66
 _ZN4yarp2os10SystemInfo11getLoadInfoEv@Base 2.3.66
 _ZN4yarp2os10SystemInfo11getUserInfoEv@Base 2.3.66
 _ZN4yarp2os10SystemInfo13getMemoryInfoEv@Base 2.3.66
 _ZN4yarp2os10SystemInfo14getProcessInfoEi@Base 2.3.66
 _ZN4yarp2os10SystemInfo14getStorageInfoEv@Base 2.3.66
 _ZN4yarp2os10SystemInfo15getPlatformInfoEv@Base 2.3.66
 _ZN4yarp2os10SystemInfo16getProcessorInfoEv@Base 2.3.66
 _ZN4yarp2os10Terminator15terminateByNameEPKc@Base 2.3.66
 _ZN4yarp2os11ConstString4nposE@Base 2.3.66
 _ZN4yarp2os11Contactable4openEv@Base 2.3.66
 _ZN4yarp2os11ContactableD0Ev@Base 2.3.66
 _ZN4yarp2os11ContactableD1Ev@Base 2.3.66
 _ZN4yarp2os11ContactableD2Ev@Base 2.3.66
 _ZN4yarp2os11InputStream11readDiscardEm@Base 2.3.66
 _ZN4yarp2os11InputStream8readFullERKNS0_5BytesE@Base 2.3.66
 _ZN4yarp2os11InputStream8readLineEiPb@Base 2.3.66
 _ZN4yarp2os11NetworkBase10disconnectERKNS0_11ConstStringES4_RKNS0_12ContactStyleE@Base 2.3.66
 _ZN4yarp2os11NetworkBase10disconnectERKNS0_11ConstStringES4_b@Base 2.3.66
 _ZN4yarp2os11NetworkBase10readStringEPb@Base 2.3.66
 _ZN4yarp2os11NetworkBase11finiMinimumEv@Base 2.3.66
 _ZN4yarp2os11NetworkBase11getPropertyEPKcS3_@Base 2.3.66
 _ZN4yarp2os11NetworkBase11initMinimumEv@Base 2.3.66
 _ZN4yarp2os11NetworkBase11initializedEv@Base 2.3.66
 _ZN4yarp2os11NetworkBase11isConnectedERKNS0_11ConstStringES4_RKNS0_12ContactStyleE@Base 2.3.66
 _ZN4yarp2os11NetworkBase11isConnectedERKNS0_11ConstStringES4_b@Base 2.3.66
 _ZN4yarp2os11NetworkBase11queryBypassEPNS0_9NameStoreE@Base 2.3.66
 _ZN4yarp2os11NetworkBase11setPropertyEPKcS3_RKNS0_5ValueE@Base 2.3.66
 _ZN4yarp2os11NetworkBase12checkNetworkEd@Base 2.3.66
 _ZN4yarp2os11NetworkBase12checkNetworkEv@Base 2.3.66
 _ZN4yarp2os11NetworkBase12getLocalModeEv@Base 2.3.66
 _ZN4yarp2os11NetworkBase12registerNameERKNS0_11ConstStringE@Base 2.3.66
 _ZN4yarp2os11NetworkBase12setLocalModeEb@Base 2.3.66
 _ZN4yarp2os11NetworkBase12setVerbosityEi@Base 2.3.66
 _ZN4yarp2os11NetworkBase13getConfigFileEPKc@Base 2.3.66
 _ZN4yarp2os11NetworkBase13runNameServerEiPPc@Base 2.3.66
 _ZN4yarp2os11NetworkBase14getEnvironmentEPKcPb@Base 2.3.66
 _ZN4yarp2os11NetworkBase14getQueryBypassEv@Base 2.3.66
 _ZN4yarp2os11NetworkBase14setEnvironmentERKNS0_11ConstStringES4_@Base 2.3.66
 _ZN4yarp2os11NetworkBase14unregisterNameERKNS0_11ConstStringE@Base 2.3.66
 _ZN4yarp2os11NetworkBase15autoInitMinimumEv@Base 2.3.66
 _ZN4yarp2os11NetworkBase15registerCarrierEPKcS3_@Base 2.3.66
 _ZN4yarp2os11NetworkBase15registerContactERKNS0_7ContactE@Base 2.3.66
 _ZN4yarp2os11NetworkBase16detectNameServerEbRbS2_@Base 2.3.66
 _ZN4yarp2os11NetworkBase16getConnectionQosERKNS0_11ConstStringES4_RNS0_8QosStyleES6_b@Base 2.3.66
 _ZN4yarp2os11NetworkBase16getPathSeparatorEv@Base 2.3.66
 _ZN4yarp2os11NetworkBase16setConnectionQosERKNS0_11ConstStringES4_RKNS0_8QosStyleES7_b@Base 2.3.66
 _ZN4yarp2os11NetworkBase16setConnectionQosERKNS0_11ConstStringES4_RKNS0_8QosStyleEb@Base 2.3.66
 _ZN4yarp2os11NetworkBase16unsetEnvironmentERKNS0_11ConstStringE@Base 2.3.66
 _ZN4yarp2os11NetworkBase17getNameServerNameEv@Base 2.3.66
 _ZN4yarp2os11NetworkBase17setNameServerNameERKNS0_11ConstStringE@Base 2.3.66
 _ZN4yarp2os11NetworkBase17unregisterContactERKNS0_7ContactE@Base 2.3.66
 _ZN4yarp2os11NetworkBase17writeToNameServerERNS0_10PortWriterERNS0_10PortReaderERKNS0_12ContactStyleE@Base 2.3.66
 _ZN4yarp2os11NetworkBase19getDefaultPortRangeEv@Base 2.3.66
 _ZN4yarp2os11NetworkBase20getNameServerContactEv@Base 2.3.66
 _ZN4yarp2os11NetworkBase20setNameServerContactERNS0_7ContactE@Base 2.3.66
 _ZN4yarp2os11NetworkBase21getDirectorySeparatorEv@Base 2.3.66
 _ZN4yarp2os11NetworkBase22localNetworkAllocationEv@Base 2.3.66
 _ZN4yarp2os11NetworkBase4lockEv@Base 2.3.66
 _ZN4yarp2os11NetworkBase4mainEiPPc@Base 2.3.66
 _ZN4yarp2os11NetworkBase4syncERKNS0_11ConstStringEb@Base 2.3.66
 _ZN4yarp2os11NetworkBase5writeERKNS0_11ConstStringERNS0_10PortWriterERNS0_10PortReaderE@Base 2.3.66
 _ZN4yarp2os11NetworkBase5writeERKNS0_7ContactERNS0_10PortWriterERNS0_10PortReaderERKNS0_12ContactStyleE@Base 2.3.66
 _ZN4yarp2os11NetworkBase5writeERKNS0_7ContactERNS0_10PortWriterERNS0_10PortReaderEbbd@Base 2.3.66
 _ZN4yarp2os11NetworkBase6existsERKNS0_11ConstStringERKNS0_12ContactStyleE@Base 2.3.66
 _ZN4yarp2os11NetworkBase6existsERKNS0_11ConstStringEb@Base 2.3.66
 _ZN4yarp2os11NetworkBase6unlockEv@Base 2.3.66
 _ZN4yarp2os11NetworkBase7connectERKNS0_11ConstStringES4_RKNS0_12ContactStyleE@Base 2.3.66
 _ZN4yarp2os11NetworkBase7connectERKNS0_11ConstStringES4_S4_b@Base 2.3.66
 _ZN4yarp2os11NetworkBase9assertionEb@Base 2.3.66
 _ZN4yarp2os11NetworkBase9queryNameERKNS0_11ConstStringE@Base 2.3.66
 _ZN4yarp2os11SystemClock11delaySystemEd@Base 2.3.66
 _ZN4yarp2os11SystemClock9nowSystemEv@Base 2.3.66
 _ZN4yarp2os11gethostnameEPcm@Base 2.3.66
 _ZN4yarp2os11getprognameEPcm@Base 2.3.66
 _ZN4yarp2os11setprognameEPKc@Base 2.3.66
 _ZN4yarp2os12ContactStyleC1Ev@Base 2.3.66
 _ZN4yarp2os12ContactStyleC2Ev@Base 2.3.66
 _ZN4yarp2os12LogForwarder11getInstanceEv@Base 2.3.66
 _ZN4yarp2os12LogForwarder3semE@Base 2.3.66
 _ZN4yarp2os12LogForwarder7forwardENSt7__cxx1112basic_stringIcSt11char_traitsIcESaIcEEE@Base 2.3.66
 _ZN4yarp2os12LogForwarder8instanceE@Base 2.3.66
 _ZN4yarp2os12LogForwarder9destroyerE@Base 2.3.66
 _ZN4yarp2os12LogForwarderC1Ev@Base 2.3.66
 _ZN4yarp2os12LogForwarderC2Ev@Base 2.3.66
 _ZN4yarp2os12LogForwarderD1Ev@Base 2.3.66
 _ZN4yarp2os12LogForwarderD2Ev@Base 2.3.66
 _ZN4yarp2os12ManagedBytes14allocateOnNeedEmm@Base 2.3.66
 _ZN4yarp2os12ManagedBytes4copyEv@Base 2.3.66
 _ZN4yarp2os12ManagedBytes4readERNS0_16ConnectionReaderE@Base 2.3.66
 _ZN4yarp2os12ManagedBytes5bytesEv@Base 2.3.66
 _ZN4yarp2os12ManagedBytes5clearEv@Base 2.3.66
 _ZN4yarp2os12ManagedBytes5writeERNS0_16ConnectionWriterE@Base 2.3.66
 _ZN4yarp2os12ManagedBytes7setUsedEm@Base 2.3.66
 _ZN4yarp2os12ManagedBytes8allocateEm@Base 2.3.66
 _ZN4yarp2os12ManagedBytes9resetUsedEv@Base 2.3.66
 _ZN4yarp2os12ManagedBytes9usedBytesEv@Base 2.3.66
 _ZN4yarp2os12ManagedBytesC1ERKNS0_5BytesEb@Base 2.3.66
 _ZN4yarp2os12ManagedBytesC1ERKS1_@Base 2.3.66
 _ZN4yarp2os12ManagedBytesC1Em@Base 2.3.66
 _ZN4yarp2os12ManagedBytesC1Ev@Base 2.3.66
 _ZN4yarp2os12ManagedBytesC2ERKNS0_5BytesEb@Base 2.3.66
 _ZN4yarp2os12ManagedBytesC2ERKS1_@Base 2.3.66
 _ZN4yarp2os12ManagedBytesC2Em@Base 2.3.66
 _ZN4yarp2os12ManagedBytesC2Ev@Base 2.3.66
 _ZN4yarp2os12ManagedBytesD0Ev@Base 2.3.66
 _ZN4yarp2os12ManagedBytesD1Ev@Base 2.3.66
 _ZN4yarp2os12ManagedBytesD2Ev@Base 2.3.66
 _ZN4yarp2os12ManagedBytesaSERKS1_@Base 2.3.66
 _ZN4yarp2os12MessageStack5stackERNS0_10PortWriterERKNS0_11ConstStringE@Base 2.3.66
 _ZN4yarp2os12MessageStack6attachERNS0_10PortReaderE@Base 2.3.66
 _ZN4yarp2os12MessageStackC1Ei@Base 2.3.66
 _ZN4yarp2os12MessageStackC2Ei@Base 2.3.66
 _ZN4yarp2os12MessageStackD0Ev@Base 2.3.66
 _ZN4yarp2os12MessageStackD1Ev@Base 2.3.66
 _ZN4yarp2os12MessageStackD2Ev@Base 2.3.66
 _ZN4yarp2os12NetworkClock3nowEv@Base 2.3.66
 _ZN4yarp2os12NetworkClock4openERKNS0_11ConstStringE@Base 2.3.66
 _ZN4yarp2os12NetworkClock4readERNS0_16ConnectionReaderE@Base 2.3.66
 _ZN4yarp2os12NetworkClock5delayEd@Base 2.3.66
 _ZN4yarp2os12NetworkClockC1Ev@Base 2.3.66
 _ZN4yarp2os12NetworkClockC2Ev@Base 2.3.66
 _ZN4yarp2os12NetworkClockD0Ev@Base 2.3.66
 _ZN4yarp2os12NetworkClockD1Ev@Base 2.3.66
 _ZN4yarp2os12NetworkClockD2Ev@Base 2.3.66
 _ZN4yarp2os12RosNameSpace11fromRosNameERKNS0_11ConstStringE@Base 2.3.66
 _ZN4yarp2os12RosNameSpace11getPropertyERKNS0_11ConstStringES4_@Base 2.3.66
 _ZN4yarp2os12RosNameSpace11setPropertyERKNS0_11ConstStringES4_RKNS0_5ValueE@Base 2.3.66
 _ZN4yarp2os12RosNameSpace12connectTopicERNS0_6BottleEbRKNS0_7ContactES6_NS0_12ContactStyleEb@Base 2.3.66
 _ZN4yarp2os12RosNameSpace12registerNameERKNS0_11ConstStringE@Base 2.3.66
 _ZN4yarp2os12RosNameSpace13toRosNodeNameERKNS0_11ConstStringE@Base 2.3.66
 _ZN4yarp2os12RosNameSpace14unregisterNameERKNS0_11ConstStringE@Base 2.3.66
 _ZN4yarp2os12RosNameSpace15fromRosNodeNameERKNS0_11ConstStringE@Base 2.3.66
 _ZN4yarp2os12RosNameSpace15registerContactERKNS0_7ContactE@Base 2.3.66
 _ZN4yarp2os12RosNameSpace16detectNameServerEbRbS2_@Base 2.3.66
 _ZN4yarp2os12RosNameSpace16registerAdvancedERKNS0_7ContactEPNS0_9NameStoreE@Base 2.3.66
 _ZN4yarp2os12RosNameSpace17unregisterContactERKNS0_7ContactE@Base 2.3.66
 _ZN4yarp2os12RosNameSpace17writeToNameServerERNS0_10PortWriterERNS0_10PortReaderERKNS0_12ContactStyleE@Base 2.3.66
 _ZN4yarp2os12RosNameSpace18connectPortToTopicERKNS0_7ContactES4_NS0_12ContactStyleE@Base 2.3.66
 _ZN4yarp2os12RosNameSpace18connectTopicToPortERKNS0_7ContactES4_NS0_12ContactStyleE@Base 2.3.66
 _ZN4yarp2os12RosNameSpace18unregisterAdvancedERKNS0_11ConstStringEPNS0_9NameStoreE@Base 2.3.66
 _ZN4yarp2os12RosNameSpace23disconnectPortFromTopicERKNS0_7ContactES4_NS0_12ContactStyleE@Base 2.3.66
 _ZN4yarp2os12RosNameSpace23disconnectTopicFromPortERKNS0_7ContactES4_NS0_12ContactStyleE@Base 2.3.66
 _ZN4yarp2os12RosNameSpace29connectPortToPortPersistentlyERKNS0_7ContactES4_NS0_12ContactStyleE@Base 2.3.66
 _ZN4yarp2os12RosNameSpace32disconnectPortToPortPersistentlyERKNS0_7ContactES4_NS0_12ContactStyleE@Base 2.3.66
 _ZN4yarp2os12RosNameSpace3runEv@Base 2.3.66
 _ZN4yarp2os12RosNameSpace6rosifyERKNS0_7ContactE@Base 2.3.66
 _ZN4yarp2os12RosNameSpace9queryNameERKNS0_11ConstStringE@Base 2.3.66
 _ZN4yarp2os12RosNameSpace9toRosNameERKNS0_11ConstStringE@Base 2.3.66
 _ZN4yarp2os12RosNameSpaceC1ERKNS0_7ContactE@Base 2.3.66
 _ZN4yarp2os12RosNameSpaceC2ERKNS0_7ContactE@Base 2.3.66
 _ZN4yarp2os12RosNameSpaceD0Ev@Base 2.3.66
 _ZN4yarp2os12RosNameSpaceD1Ev@Base 2.3.66
 _ZN4yarp2os12RosNameSpaceD2Ev@Base 2.3.66
 _ZN4yarp2os12SearchReportC1Ev@Base 2.3.66
 _ZN4yarp2os12SearchReportC2Ev@Base 2.3.66
 _ZN4yarp2os12TwoWayStreamD0Ev@Base 2.3.66
 _ZN4yarp2os12TwoWayStreamD1Ev@Base 2.3.66
 _ZN4yarp2os12TwoWayStreamD2Ev@Base 2.3.66
 _ZN4yarp2os13MonitorObject11updateReplyERNS0_6ThingsE@Base 2.3.66
 _ZN4yarp2os13MonitorObject4trigEv@Base 2.3.66
 _ZN4yarp2os13MonitorObject6acceptERNS0_6ThingsE@Base 2.3.66
 _ZN4yarp2os13MonitorObject6createERKNS0_8PropertyE@Base 2.3.66
 _ZN4yarp2os13MonitorObject6updateERNS0_6ThingsE@Base 2.3.66
 _ZN4yarp2os13MonitorObject7destroyEv@Base 2.3.66
 _ZN4yarp2os13MonitorObject8getparamERNS0_8PropertyE@Base 2.3.66
 _ZN4yarp2os13MonitorObject8setparamERKNS0_8PropertyE@Base 2.3.66
 _ZN4yarp2os13MonitorObjectD0Ev@Base 2.3.66
 _ZN4yarp2os13MonitorObjectD1Ev@Base 2.3.66
 _ZN4yarp2os13MonitorObjectD2Ev@Base 2.3.66
 _ZN4yarp2os13NestedContact10fromStringERKNS0_11ConstStringE@Base 2.3.66
 _ZN4yarp2os13NestedContactC1ERKNS0_11ConstStringE@Base 2.3.66
 _ZN4yarp2os13NestedContactC2ERKNS0_11ConstStringE@Base 2.3.66
 _ZN4yarp2os13SearchMonitorD0Ev@Base 2.3.66
 _ZN4yarp2os13SearchMonitorD1Ev@Base 2.3.66
 _ZN4yarp2os13SearchMonitorD2Ev@Base 2.3.66
 _ZN4yarp2os13SharedLibrary4openEPKc@Base 2.3.66
 _ZN4yarp2os13SharedLibrary5closeEv@Base 2.3.66
 _ZN4yarp2os13SharedLibrary5errorEv@Base 2.3.66
 _ZN4yarp2os13SharedLibrary9getSymbolEPKc@Base 2.3.66
 _ZN4yarp2os13SharedLibraryC1EPKc@Base 2.3.66
 _ZN4yarp2os13SharedLibraryC1Ev@Base 2.3.66
 _ZN4yarp2os13SharedLibraryC2EPKc@Base 2.3.66
 _ZN4yarp2os13SharedLibraryC2Ev@Base 2.3.66
 _ZN4yarp2os13SharedLibraryD0Ev@Base 2.3.66
 _ZN4yarp2os13SharedLibraryD1Ev@Base 2.3.66
 _ZN4yarp2os13SharedLibraryD2Ev@Base 2.3.66
 _ZN4yarp2os13YarpNameSpace11getPropertyERKNS0_11ConstStringES4_@Base 2.3.66
 _ZN4yarp2os13YarpNameSpace11setPropertyERKNS0_11ConstStringES4_RKNS0_5ValueE@Base 2.3.66
 _ZN4yarp2os13YarpNameSpace12registerNameERKNS0_11ConstStringE@Base 2.3.66
 _ZN4yarp2os13YarpNameSpace14unregisterNameERKNS0_11ConstStringE@Base 2.3.66
 _ZN4yarp2os13YarpNameSpace15registerContactERKNS0_7ContactE@Base 2.3.66
 _ZN4yarp2os13YarpNameSpace16detectNameServerEbRbS2_@Base 2.3.66
 _ZN4yarp2os13YarpNameSpace17unregisterContactERKNS0_7ContactE@Base 2.3.66
 _ZN4yarp2os13YarpNameSpace17writeToNameServerERNS0_10PortWriterERNS0_10PortReaderERKNS0_12ContactStyleE@Base 2.3.66
 _ZN4yarp2os13YarpNameSpace9queryNameERKNS0_11ConstStringE@Base 2.3.66
 _ZN4yarp2os13YarpNameSpaceC1ERKNS0_7ContactE@Base 2.3.66
 _ZN4yarp2os13YarpNameSpaceC2ERKNS0_7ContactE@Base 2.3.66
 _ZN4yarp2os13YarpNameSpaceD0Ev@Base 2.3.66
 _ZN4yarp2os13YarpNameSpaceD1Ev@Base 2.3.66
 _ZN4yarp2os13YarpNameSpaceD2Ev@Base 2.3.66
 _ZN4yarp2os14DummyConnector11setTextModeEb@Base 2.3.66
 _ZN4yarp2os14DummyConnector14getCleanWriterEv@Base 2.3.66
 _ZN4yarp2os14DummyConnector5resetEv@Base 2.3.66
 _ZN4yarp2os14DummyConnector9getReaderEv@Base 2.3.66
 _ZN4yarp2os14DummyConnector9getWriterEv@Base 2.3.66
 _ZN4yarp2os14DummyConnectorC1Ev@Base 2.3.66
 _ZN4yarp2os14DummyConnectorC2Ev@Base 2.3.66
 _ZN4yarp2os14DummyConnectorD0Ev@Base 2.3.66
 _ZN4yarp2os14DummyConnectorD1Ev@Base 2.3.66
 _ZN4yarp2os14DummyConnectorD2Ev@Base 2.3.66
 _ZN4yarp2os14MultiNameSpace11getPropertyERKNS0_11ConstStringES4_@Base 2.3.66
 _ZN4yarp2os14MultiNameSpace11queryBypassEPNS0_9NameStoreE@Base 2.3.66
 _ZN4yarp2os14MultiNameSpace11setPropertyERKNS0_11ConstStringES4_RKNS0_5ValueE@Base 2.3.66
 _ZN4yarp2os14MultiNameSpace12registerNameERKNS0_11ConstStringE@Base 2.3.66
 _ZN4yarp2os14MultiNameSpace12setLocalModeEb@Base 2.3.66
 _ZN4yarp2os14MultiNameSpace14getQueryBypassEv@Base 2.3.66
 _ZN4yarp2os14MultiNameSpace14unregisterNameERKNS0_11ConstStringE@Base 2.3.66
 _ZN4yarp2os14MultiNameSpace15registerContactERKNS0_7ContactE@Base 2.3.66
 _ZN4yarp2os14MultiNameSpace16detectNameServerEbRbS2_@Base 2.3.66
 _ZN4yarp2os14MultiNameSpace17unregisterContactERKNS0_7ContactE@Base 2.3.66
 _ZN4yarp2os14MultiNameSpace17writeToNameServerERNS0_10PortWriterERNS0_10PortReaderERKNS0_12ContactStyleE@Base 2.3.66
 _ZN4yarp2os14MultiNameSpace18connectPortToTopicERKNS0_7ContactES4_NS0_12ContactStyleE@Base 2.3.66
 _ZN4yarp2os14MultiNameSpace18connectTopicToPortERKNS0_7ContactES4_NS0_12ContactStyleE@Base 2.3.66
 _ZN4yarp2os14MultiNameSpace23disconnectPortFromTopicERKNS0_7ContactES4_NS0_12ContactStyleE@Base 2.3.66
 _ZN4yarp2os14MultiNameSpace23disconnectTopicFromPortERKNS0_7ContactES4_NS0_12ContactStyleE@Base 2.3.66
 _ZN4yarp2os14MultiNameSpace29connectPortToPortPersistentlyERKNS0_7ContactES4_NS0_12ContactStyleE@Base 2.3.66
 _ZN4yarp2os14MultiNameSpace32disconnectPortToPortPersistentlyERKNS0_7ContactES4_NS0_12ContactStyleE@Base 2.3.66
 _ZN4yarp2os14MultiNameSpace8activateEb@Base 2.3.66
 _ZN4yarp2os14MultiNameSpace9queryNameERKNS0_11ConstStringE@Base 2.3.66
 _ZN4yarp2os14MultiNameSpaceC1Ev@Base 2.3.66
 _ZN4yarp2os14MultiNameSpaceC2Ev@Base 2.3.66
 _ZN4yarp2os14MultiNameSpaceD0Ev@Base 2.3.66
 _ZN4yarp2os14MultiNameSpaceD1Ev@Base 2.3.66
 _ZN4yarp2os14MultiNameSpaceD2Ev@Base 2.3.66
 _ZN4yarp2os14RecursiveMutex4lockEv@Base 2.3.66
 _ZN4yarp2os14RecursiveMutex6unlockEv@Base 2.3.66
 _ZN4yarp2os14RecursiveMutex7tryLockEv@Base 2.3.66
 _ZN4yarp2os14RecursiveMutexC1Ev@Base 2.3.66
 _ZN4yarp2os14RecursiveMutexC2Ev@Base 2.3.66
 _ZN4yarp2os14RecursiveMutexD1Ev@Base 2.3.66
 _ZN4yarp2os14RecursiveMutexD2Ev@Base 2.3.66
 _ZN4yarp2os14ResourceFinder10addContextEPKc@Base 2.3.66
 _ZN4yarp2os14ResourceFinder10getContextEv@Base 2.3.66
 _ZN4yarp2os14ResourceFinder10readConfigERNS0_8PropertyERKNS0_11ConstStringERKNS0_21ResourceFinderOptionsE@Base 2.3.66
 _ZN4yarp2os14ResourceFinder10setDefaultEPKcRKNS0_11ConstStringE@Base 2.3.66
 _ZN4yarp2os14ResourceFinder10setDefaultEPKcRKNS0_5ValueE@Base 2.3.66
 _ZN4yarp2os14ResourceFinder10setVerboseEb@Base 2.3.66
 _ZN4yarp2os14ResourceFinder11getContextsEv@Base 2.3.66
 _ZN4yarp2os14ResourceFinder11getDataDirsEv@Base 2.3.66
 _ZN4yarp2os14ResourceFinder12clearContextEv@Base 2.3.66
 _ZN4yarp2os14ResourceFinder13getConfigDirsEv@Base 2.3.66
 _ZN4yarp2os14ResourceFinder14createIfAbsentEbRKNS0_11ConstStringE@Base 2.3.66
 _ZN4yarp2os14ResourceFinder14findFileByNameERKNS0_11ConstStringE@Base 2.3.66
 _ZN4yarp2os14ResourceFinder14findFileByNameERKNS0_11ConstStringERKNS0_21ResourceFinderOptionsE@Base 2.3.66
 _ZN4yarp2os14ResourceFinder14getContextPathEv@Base 2.3.66
 _ZN4yarp2os14ResourceFinder16getHomeRobotPathEv@Base 2.3.66
 _ZN4yarp2os14ResourceFinder18getHomeContextPathEv@Base 2.3.66
 _ZN4yarp2os14ResourceFinder24findNestedResourceFinderEPKc@Base 2.3.66
 _ZN4yarp2os14ResourceFinder26getResourceFinderSingletonEv@Base 2.3.66
 _ZN4yarp2os14ResourceFinder31getDataHomeWithPossibleCreationEb@Base 2.3.66
 _ZN4yarp2os14ResourceFinder33getConfigHomeWithPossibleCreationEb@Base 2.3.66
 _ZN4yarp2os14ResourceFinder8findFileERKNS0_11ConstStringE@Base 2.3.66
 _ZN4yarp2os14ResourceFinder8findFileERKNS0_11ConstStringERKNS0_21ResourceFinderOptionsE@Base 2.3.66
 _ZN4yarp2os14ResourceFinder8findPathERKNS0_11ConstStringE@Base 2.3.66
 _ZN4yarp2os14ResourceFinder8findPathERKNS0_11ConstStringERKNS0_21ResourceFinderOptionsE@Base 2.3.66
 _ZN4yarp2os14ResourceFinder8findPathEv@Base 2.3.66
 _ZN4yarp2os14ResourceFinder8setQuietEb@Base 2.3.66
 _ZN4yarp2os14ResourceFinder9configureEPKciPPcb@Base 2.3.66
 _ZN4yarp2os14ResourceFinder9configureEiPPcb@Base 2.3.66
 _ZN4yarp2os14ResourceFinder9findPathsERKNS0_11ConstStringE@Base 2.3.66
 _ZN4yarp2os14ResourceFinder9findPathsERKNS0_11ConstStringERKNS0_21ResourceFinderOptionsE@Base 2.3.66
 _ZN4yarp2os14ResourceFinderC1ERKS1_@Base 2.3.66
 _ZN4yarp2os14ResourceFinderC1ERNS0_10SearchableEPv@Base 2.3.66
 _ZN4yarp2os14ResourceFinderC1Ev@Base 2.3.66
 _ZN4yarp2os14ResourceFinderC2ERKS1_@Base 2.3.66
 _ZN4yarp2os14ResourceFinderC2ERNS0_10SearchableEPv@Base 2.3.66
 _ZN4yarp2os14ResourceFinderC2Ev@Base 2.3.66
 _ZN4yarp2os14ResourceFinderD0Ev@Base 2.3.66
 _ZN4yarp2os14ResourceFinderD1Ev@Base 2.3.66
 _ZN4yarp2os14ResourceFinderD2Ev@Base 2.3.66
 _ZN4yarp2os14ResourceFinderaSERKS1_@Base 2.3.66
 _ZN4yarp2os15AbstractCarrier10isTextModeEv@Base 2.3.66
 _ZN4yarp2os15AbstractCarrier10requireAckEv@Base 2.3.66
 _ZN4yarp2os15AbstractCarrier10sendHeaderERNS0_15ConnectionStateE@Base 2.3.66
 _ZN4yarp2os15AbstractCarrier11expectIndexERNS0_15ConnectionStateE@Base 2.3.66
 _ZN4yarp2os15AbstractCarrier11prepareSendERNS0_15ConnectionStateE@Base 2.3.66
 _ZN4yarp2os15AbstractCarrier11readYarpIntERNS0_15ConnectionStateE@Base 2.3.66
 _ZN4yarp2os15AbstractCarrier12getSpecifierERKNS0_5BytesE@Base 2.3.66
 _ZN4yarp2os15AbstractCarrier12supportReplyEv@Base 2.3.66
 _ZN4yarp2os15AbstractCarrier12writeYarpIntEiRNS0_15ConnectionStateE@Base 2.3.66
 _ZN4yarp2os15AbstractCarrier13setParametersERKNS0_5BytesE@Base 2.3.66
 _ZN4yarp2os15AbstractCarrier14defaultSendAckERNS0_15ConnectionStateE@Base 2.3.66
 _ZN4yarp2os15AbstractCarrier16defaultExpectAckERNS0_15ConnectionStateE@Base 2.3.66
 _ZN4yarp2os15AbstractCarrier16defaultSendIndexERNS0_15ConnectionStateERNS0_11SizedWriterE@Base 2.3.66
 _ZN4yarp2os15AbstractCarrier16getCarrierParamsERNS0_8PropertyE@Base 2.3.66
 _ZN4yarp2os15AbstractCarrier16isConnectionlessEv@Base 2.3.66
 _ZN4yarp2os15AbstractCarrier16setCarrierParamsERKNS0_8PropertyE@Base 2.3.66
 _ZN4yarp2os15AbstractCarrier17defaultSendHeaderERNS0_15ConnectionStateE@Base 2.3.66
 _ZN4yarp2os15AbstractCarrier17expectExtraHeaderERNS0_15ConnectionStateE@Base 2.3.66
 _ZN4yarp2os15AbstractCarrier18defaultExpectIndexERNS0_15ConnectionStateE@Base 2.3.66
 _ZN4yarp2os15AbstractCarrier19expectReplyToHeaderERNS0_15ConnectionStateE@Base 2.3.66
 _ZN4yarp2os15AbstractCarrier19sendSenderSpecifierERNS0_15ConnectionStateE@Base 2.3.66
 _ZN4yarp2os15AbstractCarrier20createStandardHeaderEiRKNS0_5BytesE@Base 2.3.66
 _ZN4yarp2os15AbstractCarrier21expectSenderSpecifierERNS0_15ConnectionStateE@Base 2.3.66
 _ZN4yarp2os15AbstractCarrier28sendConnectionStateSpecifierERNS0_15ConnectionStateE@Base 2.3.66
 _ZN4yarp2os15AbstractCarrier5writeERNS0_15ConnectionStateERNS0_11SizedWriterE@Base 2.3.66
 _ZN4yarp2os15AbstractCarrier7isLocalEv@Base 2.3.66
 _ZN4yarp2os15AbstractCarrier7sendAckERNS0_15ConnectionStateE@Base 2.3.66
 _ZN4yarp2os15AbstractCarrier8canOfferEv@Base 2.3.66
 _ZN4yarp2os15AbstractCarrier8isActiveEv@Base 2.3.66
 _ZN4yarp2os15AbstractCarrier8toStringEv@Base 2.3.66
 _ZN4yarp2os15AbstractCarrier9canAcceptEv@Base 2.3.66
 _ZN4yarp2os15AbstractCarrier9canEscapeEv@Base 2.3.66
 _ZN4yarp2os15AbstractCarrier9expectAckERNS0_15ConnectionStateE@Base 2.3.66
 _ZN4yarp2os15AbstractCarrier9sendIndexERNS0_15ConnectionStateERNS0_11SizedWriterE@Base 2.3.66
 _ZN4yarp2os16ConnectionReader12readEnvelopeEv@Base 2.3.66
 _ZN4yarp2os16ConnectionReader14readFromStreamERNS0_10PortReaderERNS0_11InputStreamE@Base 2.3.66
 _ZN4yarp2os16ConnectionReader22createConnectionReaderERNS0_11InputStreamE@Base 2.3.66
 _ZN4yarp2os16ConnectionReaderD0Ev@Base 2.3.66
 _ZN4yarp2os16ConnectionReaderD1Ev@Base 2.3.66
 _ZN4yarp2os16ConnectionReaderD2Ev@Base 2.3.66
 _ZN4yarp2os16ConnectionWriter13writeToStreamERNS0_10PortWriterERNS0_12OutputStreamE@Base 2.3.66
 _ZN4yarp2os16ConnectionWriter30createBufferedConnectionWriterEv@Base 2.3.66
 _ZN4yarp2os16ConnectionWriterD0Ev@Base 2.3.66
 _ZN4yarp2os16ConnectionWriterD1Ev@Base 2.3.66
 _ZN4yarp2os16ConnectionWriterD2Ev@Base 2.3.66
 _ZN4yarp2os16ModifyingCarrier11checkHeaderERKNS0_5BytesE@Base 2.3.66
 _ZN4yarp2os16ModifyingCarrier13modifiesReplyEv@Base 2.3.66
 _ZN4yarp2os16ModifyingCarrier15respondToHeaderERNS0_15ConnectionStateE@Base 2.3.66
 _ZN4yarp2os16ModifyingCarrier16getCarrierParamsERNS0_8PropertyE@Base 2.3.66
 _ZN4yarp2os16ModifyingCarrier16setCarrierParamsERKNS0_8PropertyE@Base 2.3.66
 _ZN4yarp2os16ModifyingCarrier20modifiesIncomingDataEv@Base 2.3.66
 _ZN4yarp2os16ModifyingCarrier20modifiesOutgoingDataEv@Base 2.3.66
 _ZN4yarp2os16ModifyingCarrier21configureFromPropertyERNS0_8PropertyE@Base 2.3.66
 _ZN4yarp2os16ModifyingCarrier9getHeaderERKNS0_5BytesE@Base 2.3.66
 _ZN4yarp2os16PortablePairBase8readPairERNS0_16ConnectionReaderERNS0_8PortableES5_@Base 2.3.66
 _ZN4yarp2os16PortablePairBase9writePairERNS0_16ConnectionWriterERNS0_8PortableES5_@Base 2.3.66
 _ZN4yarp2os17PortReaderCreatorD0Ev@Base 2.3.66
 _ZN4yarp2os17PortReaderCreatorD1Ev@Base 2.3.66
 _ZN4yarp2os17PortReaderCreatorD2Ev@Base 2.3.66
 _ZN4yarp2os17RateThreadWrapper10afterStartEb@Base 2.3.66
 _ZN4yarp2os17RateThreadWrapper10threadInitEv@Base 2.3.66
 _ZN4yarp2os17RateThreadWrapper11beforeStartEv@Base 2.3.66
 _ZN4yarp2os17RateThreadWrapper13threadReleaseEv@Base 2.3.66
 _ZN4yarp2os17RateThreadWrapper3runEv@Base 2.3.66
 _ZN4yarp2os17RateThreadWrapper4openEdb@Base 2.3.66
 _ZN4yarp2os17RateThreadWrapper4stopEv@Base 2.3.66
 _ZN4yarp2os17RateThreadWrapper5closeEv@Base 2.3.66
 _ZN4yarp2os17RateThreadWrapper6attachEPNS0_8RunnableE@Base 2.3.66
 _ZN4yarp2os17RateThreadWrapper6attachERNS0_8RunnableE@Base 2.3.66
 _ZN4yarp2os17RateThreadWrapper6detachEv@Base 2.3.66
 _ZN4yarp2os17RateThreadWrapperC1EPNS0_8RunnableE@Base 2.3.66
 _ZN4yarp2os17RateThreadWrapperC1ERNS0_8RunnableE@Base 2.3.66
 _ZN4yarp2os17RateThreadWrapperC1Ev@Base 2.3.66
 _ZN4yarp2os17RateThreadWrapperC2EPNS0_8RunnableE@Base 2.3.66
 _ZN4yarp2os17RateThreadWrapperC2ERNS0_8RunnableE@Base 2.3.66
 _ZN4yarp2os17RateThreadWrapperC2Ev@Base 2.3.66
 _ZN4yarp2os17RateThreadWrapperD0Ev@Base 2.3.66
 _ZN4yarp2os17RateThreadWrapperD1Ev@Base 2.3.66
 _ZN4yarp2os17RateThreadWrapperD2Ev@Base 2.3.66
 _ZN4yarp2os18YarpPluginSelector4scanEv@Base 2.3.66
 _ZN4yarp2os18YarpPluginSettings4openERNS0_20SharedLibraryFactoryE@Base 2.3.66
 _ZN4yarp2os18YarpPluginSettings4openERNS0_20SharedLibraryFactoryERKNS0_11ConstStringES6_@Base 2.3.66
 _ZN4yarp2os18YarpPluginSettings7subopenERNS0_20SharedLibraryFactoryERKNS0_11ConstStringES6_@Base 2.3.66
 _ZN4yarp2os20NullConnectionReader10expectTextEi@Base 2.3.66
 _ZN4yarp2os20NullConnectionReader10isTextModeEv@Base 2.3.66
 _ZN4yarp2os20NullConnectionReader11expectBlockEPKcm@Base 2.3.66
 _ZN4yarp2os20NullConnectionReader11requestDropEv@Base 2.3.66
 _ZN4yarp2os20NullConnectionReader12expectDoubleEv@Base 2.3.66
 _ZN4yarp2os20NullConnectionReader12getReferenceEv@Base 2.3.66
 _ZN4yarp2os20NullConnectionReader12readEnvelopeEv@Base 2.3.66
 _ZN4yarp2os20NullConnectionReader15convertTextModeEv@Base 2.3.66
 _ZN4yarp2os20NullConnectionReader15getLocalContactEv@Base 2.3.66
 _ZN4yarp2os20NullConnectionReader16getRemoteContactEv@Base 2.3.66
 _ZN4yarp2os20NullConnectionReader22getConnectionModifiersEv@Base 2.3.66
 _ZN4yarp2os20NullConnectionReader7getSizeEv@Base 2.3.66
 _ZN4yarp2os20NullConnectionReader7isErrorEv@Base 2.3.66
 _ZN4yarp2os20NullConnectionReader7isValidEv@Base 2.3.66
 _ZN4yarp2os20NullConnectionReader7pushIntEi@Base 2.3.66
 _ZN4yarp2os20NullConnectionReader8isActiveEv@Base 2.3.66
 _ZN4yarp2os20NullConnectionReader9expectIntEv@Base 2.3.66
 _ZN4yarp2os20NullConnectionReader9getWriterEv@Base 2.3.66
 _ZN4yarp2os20NullConnectionWriter10isBareModeEv@Base 2.3.66
 _ZN4yarp2os20NullConnectionWriter10isTextModeEv@Base 2.3.66
 _ZN4yarp2os20NullConnectionWriter11appendBlockEPKcm@Base 2.3.66
 _ZN4yarp2os20NullConnectionWriter11appendInt64ERKl@Base 2.3.66
 _ZN4yarp2os20NullConnectionWriter11requestDropEv@Base 2.3.66
 _ZN4yarp2os20NullConnectionWriter12appendDoubleEd@Base 2.3.66
 _ZN4yarp2os20NullConnectionWriter12appendStringEPKci@Base 2.3.66
 _ZN4yarp2os20NullConnectionWriter12declareSizesEiPi@Base 2.3.66
 _ZN4yarp2os20NullConnectionWriter12setReferenceEPNS0_8PortableE@Base 2.3.66
 _ZN4yarp2os20NullConnectionWriter15convertTextModeEv@Base 2.3.66
 _ZN4yarp2os20NullConnectionWriter15setReplyHandlerERNS0_10PortReaderE@Base 2.3.66
 _ZN4yarp2os20NullConnectionWriter19appendExternalBlockEPKcm@Base 2.3.66
 _ZN4yarp2os20NullConnectionWriter7isErrorEv@Base 2.3.66
 _ZN4yarp2os20NullConnectionWriter7isValidEv@Base 2.3.66
 _ZN4yarp2os20NullConnectionWriter8isActiveEv@Base 2.3.66
 _ZN4yarp2os20NullConnectionWriter9appendIntEi@Base 2.3.66
 _ZN4yarp2os20NullConnectionWriter9getBufferEv@Base 2.3.66
 _ZN4yarp2os20PortWriterBufferBase10getContentEv@Base 2.3.66
 _ZN4yarp2os20PortWriterBufferBase12waitForWriteEv@Base 2.3.66
 _ZN4yarp2os20PortWriterBufferBase14releaseContentEv@Base 2.3.66
 _ZN4yarp2os20PortWriterBufferBase4initEv@Base 2.3.66
 _ZN4yarp2os20PortWriterBufferBase5writeEb@Base 2.3.66
 _ZN4yarp2os20PortWriterBufferBase6attachERNS0_4PortE@Base 2.3.66
 _ZN4yarp2os20PortWriterBufferBase6detachEv@Base 2.3.66
 _ZN4yarp2os20PortWriterBufferBase8getCountEv@Base 2.3.66
 _ZN4yarp2os20PortWriterBufferBaseC1Ev@Base 2.3.66
 _ZN4yarp2os20PortWriterBufferBaseC2Ev@Base 2.3.66
 _ZN4yarp2os20PortWriterBufferBaseD0Ev@Base 2.3.66
 _ZN4yarp2os20PortWriterBufferBaseD1Ev@Base 2.3.66
 _ZN4yarp2os20PortWriterBufferBaseD2Ev@Base 2.3.66
 _ZN4yarp2os20SharedLibraryFactory18useFactoryFunctionEPv@Base 2.3.66
 _ZN4yarp2os20SharedLibraryFactory4openEPKcS3_@Base 2.3.66
 _ZN4yarp2os20SharedLibraryFactory6addRefEv@Base 2.3.66
 _ZN4yarp2os20SharedLibraryFactory9removeRefEv@Base 2.3.66
 _ZN4yarp2os20SharedLibraryFactoryC1EPKcS3_@Base 2.3.66
 _ZN4yarp2os20SharedLibraryFactoryC1Ev@Base 2.3.66
 _ZN4yarp2os20SharedLibraryFactoryC2EPKcS3_@Base 2.3.66
 _ZN4yarp2os20SharedLibraryFactoryC2Ev@Base 2.3.66
 _ZN4yarp2os20SharedLibraryFactoryD0Ev@Base 2.3.66
 _ZN4yarp2os20SharedLibraryFactoryD1Ev@Base 2.3.66
 _ZN4yarp2os20SharedLibraryFactoryD2Ev@Base 2.3.66
 _ZN4yarp2os20SystemInfoSerializer4readERNS0_16ConnectionReaderE@Base 2.3.66
 _ZN4yarp2os20SystemInfoSerializer5writeERNS0_16ConnectionWriterE@Base 2.3.66
 _ZN4yarp2os20SystemInfoSerializerC1Ev@Base 2.3.66
 _ZN4yarp2os20SystemInfoSerializerC2Ev@Base 2.3.66
 _ZN4yarp2os20SystemInfoSerializerD0Ev@Base 2.3.66
 _ZN4yarp2os20SystemInfoSerializerD1Ev@Base 2.3.66
 _ZN4yarp2os20SystemInfoSerializerD2Ev@Base 2.3.66
 _ZN4yarp2os21LogForwarderDestroyer12SetSingletonEPNS0_12LogForwarderE@Base 2.3.66
 _ZN4yarp2os21LogForwarderDestroyerC1EPNS0_12LogForwarderE@Base 2.3.66
 _ZN4yarp2os21LogForwarderDestroyerC2EPNS0_12LogForwarderE@Base 2.3.66
 _ZN4yarp2os21LogForwarderDestroyerD1Ev@Base 2.3.66
 _ZN4yarp2os21LogForwarderDestroyerD2Ev@Base 2.3.66
 _ZN4yarp2os21ResourceFinderOptionsC1ENS1_15SearchLocationsENS1_20DuplicateFilesPolicyENS1_12SearchFlavorERKNS0_11ConstStringENS1_13MessageFilterE@Base 2.3.66
 _ZN4yarp2os21ResourceFinderOptionsC2ENS1_15SearchLocationsENS1_20DuplicateFilesPolicyENS1_12SearchFlavorERKNS0_11ConstStringENS1_13MessageFilterE@Base 2.3.66
 _ZN4yarp2os3Log14print_callbackE@Base 2.3.66
 _ZN4yarp2os3Log14setLogCallbackEPFvNS1_7LogTypeEPKcS4_jS4_E@Base 2.3.66
 _ZN4yarp2os3Log16forward_callbackE@Base 2.3.66
 _ZN4yarp2os3LogC1EPKcjS3_@Base 2.3.66
 _ZN4yarp2os3LogC1Ev@Base 2.3.66
 _ZN4yarp2os3LogC2EPKcjS3_@Base 2.3.66
 _ZN4yarp2os3LogC2Ev@Base 2.3.66
 _ZN4yarp2os3LogD0Ev@Base 2.3.66
 _ZN4yarp2os3LogD1Ev@Base 2.3.66
 _ZN4yarp2os3LogD2Ev@Base 2.3.66
 _ZN4yarp2os3Run10executeCmdERNS0_6BottleES3_@Base 2.3.66
 _ZN4yarp2os3Run11CleanZombieEi@Base 2.3.66
 _ZN4yarp2os3Run11mLoggerPortE@Base 2.3.66
 _ZN4yarp2os3Run11mStresstestE@Base 2.3.66
 _ZN4yarp2os3Run11pServerPortE@Base 2.3.66
 _ZN4yarp2os3Run11writeToPipeEiNS0_11ConstStringE@Base 2.3.66
 _ZN4yarp2os3Run12mStdioVectorE@Base 2.3.66
 _ZN4yarp2os3Run12readFromPipeEiRPcRi@Base 2.3.66
 _ZN4yarp2os3Run14mProcessVectorE@Base 2.3.66
 _ZN4yarp2os3Run15cleanBeforeExecEv@Base 2.3.66
 _ZN4yarp2os3Run16executeCmdStdoutERNS0_6BottleES3_RNS0_11ConstStringE@Base 2.3.66
 _ZN4yarp2os3Run18executeCmdAndStdioERNS0_6BottleES3_@Base 2.3.66
 _ZN4yarp2os3Run18mBraveZombieHunterE@Base 2.3.66
 _ZN4yarp2os3Run4HelpEPKc@Base 2.3.66
 _ZN4yarp2os3Run4killERKNS0_11ConstStringES4_i@Base 2.3.66
 _ZN4yarp2os3Run4mainEiPPc@Base 2.3.66
 _ZN4yarp2os3Run5startERKNS0_11ConstStringERNS0_8PropertyERS2_@Base 2.3.66
 _ZN4yarp2os3Run6clientERNS0_8PropertyE@Base 2.3.66
 _ZN4yarp2os3Run6serverEv@Base 2.3.66
 _ZN4yarp2os3Run7mLoggedE@Base 2.3.66
 _ZN4yarp2os3Run7sendMsgERNS0_6BottleENS0_11ConstStringEid@Base 2.3.66
 _ZN4yarp2os3Run7sigtermERKNS0_11ConstStringE@Base 2.3.66
 _ZN4yarp2os3Run7sigtermERKNS0_11ConstStringES4_@Base 2.3.66
 _ZN4yarp2os3Run8mProcCNTE@Base 2.3.66
 _ZN4yarp2os3Run9isRunningERKNS0_11ConstStringERS2_@Base 2.3.66
 _ZN4yarp2os3Run9mPortNameE@Base 2.3.66
 _ZN4yarp2os3Run9userStdioERNS0_6BottleES3_@Base 2.3.66
 _ZN4yarp2os3idl10WireReader10readBinaryERNS0_11ConstStringE@Base 2.3.66
 _ZN4yarp2os3idl10WireReader10readDoubleERd@Base 2.3.66
 _ZN4yarp2os3idl10WireReader10readMapEndEv@Base 2.3.66
 _ZN4yarp2os3idl10WireReader10readNestedERNS0_10PortReaderE@Base 2.3.66
 _ZN4yarp2os3idl10WireReader10readNestedERNS1_12WirePortableE@Base 2.3.66
 _ZN4yarp2os3idl10WireReader10readSetEndEv@Base 2.3.66
 _ZN4yarp2os3idl10WireReader10readStringERNS0_11ConstStringEPb@Base 2.3.66
 _ZN4yarp2os3idl10WireReader10scanStringERNS0_11ConstStringEb@Base 2.3.66
 _ZN4yarp2os3idl10WireReader11readListEndEv@Base 2.3.66
 _ZN4yarp2os3idl10WireReader12allowGetModeEv@Base 2.3.66
 _ZN4yarp2os3idl10WireReader12expectAcceptEv@Base 2.3.66
 _ZN4yarp2os3idl10WireReader12readMapBeginERNS1_9WireStateES4_Rj@Base 2.3.66
 _ZN4yarp2os3idl10WireReader12readSetBeginERNS1_9WireStateERj@Base 2.3.66
 _ZN4yarp2os3idl10WireReader13readListBeginERNS1_9WireStateERj@Base 2.3.66
 _ZN4yarp2os3idl10WireReader14readListHeaderEi@Base 2.3.66
 _ZN4yarp2os3idl10WireReader14readListHeaderEv@Base 2.3.66
 _ZN4yarp2os3idl10WireReader14readListReturnEv@Base 2.3.66
 _ZN4yarp2os3idl10WireReader4failEv@Base 2.3.66
 _ZN4yarp2os3idl10WireReader4readERNS0_10PortReaderE@Base 2.3.66
 _ZN4yarp2os3idl10WireReader4readERNS1_12WirePortableE@Base 2.3.66
 _ZN4yarp2os3idl10WireReader5clearEv@Base 2.3.66
 _ZN4yarp2os3idl10WireReader6acceptEv@Base 2.3.66
 _ZN4yarp2os3idl10WireReader6noMoreEv@Base 2.3.66
 _ZN4yarp2os3idl10WireReader7isErrorEv@Base 2.3.66
 _ZN4yarp2os3idl10WireReader7isValidEv@Base 2.3.66
 _ZN4yarp2os3idl10WireReader7readI16ERs@Base 2.3.66
 _ZN4yarp2os3idl10WireReader7readI32ERi@Base 2.3.66
 _ZN4yarp2os3idl10WireReader7readI64ERl@Base 2.3.66
 _ZN4yarp2os3idl10WireReader7readTagEv@Base 2.3.66
 _ZN4yarp2os3idl10WireReader8readBoolERb@Base 2.3.66
 _ZN4yarp2os3idl10WireReader8readByteERa@Base 2.3.66
 _ZN4yarp2os3idl10WireReader8readEnumERiRNS1_9WireVocabE@Base 2.3.66
 _ZN4yarp2os3idl10WireReader9getWriterEv@Base 2.3.66
 _ZN4yarp2os3idl10WireReader9readVocabERi@Base 2.3.66
 _ZN4yarp2os3idl10WireReaderC1ERNS0_16ConnectionReaderE@Base 2.3.66
 _ZN4yarp2os3idl10WireReaderC2ERNS0_16ConnectionReaderE@Base 2.3.66
 _ZN4yarp2os3idl10WireReaderD1Ev@Base 2.3.66
 _ZN4yarp2os3idl10WireReaderD2Ev@Base 2.3.66
 _ZN4yarp2os3idl10WireWriter10writeVocabEi@Base 2.3.66
 _ZN4yarp2os3idl10WireWriter11writeBinaryERKNS0_11ConstStringE@Base 2.3.66
 _ZN4yarp2os3idl10WireWriter11writeDoubleEd@Base 2.3.66
 _ZN4yarp2os3idl10WireWriter11writeMapEndEv@Base 2.3.66
 _ZN4yarp2os3idl10WireWriter11writeNestedERNS0_10PortWriterE@Base 2.3.66
 _ZN4yarp2os3idl10WireWriter11writeNestedERNS1_12WirePortableE@Base 2.3.66
 _ZN4yarp2os3idl10WireWriter11writeSetEndEv@Base 2.3.66
 _ZN4yarp2os3idl10WireWriter11writeStringERKNS0_11ConstStringE@Base 2.3.66
 _ZN4yarp2os3idl10WireWriter12writeListEndEv@Base 2.3.66
 _ZN4yarp2os3idl10WireWriter13writeMapBeginEiij@Base 2.3.66
 _ZN4yarp2os3idl10WireWriter13writeSetBeginEij@Base 2.3.66
 _ZN4yarp2os3idl10WireWriter14writeListBeginEij@Base 2.3.66
 _ZN4yarp2os3idl10WireWriter15writeListHeaderEi@Base 2.3.66
 _ZN4yarp2os3idl10WireWriter19writeOnewayResponseEv@Base 2.3.66
 _ZN4yarp2os3idl10WireWriter5writeERNS0_10PortWriterE@Base 2.3.66
 _ZN4yarp2os3idl10WireWriter5writeERNS1_12WirePortableE@Base 2.3.66
 _ZN4yarp2os3idl10WireWriter7isErrorEv@Base 2.3.66
 _ZN4yarp2os3idl10WireWriter7isValidEv@Base 2.3.66
 _ZN4yarp2os3idl10WireWriter8writeI16ERKs@Base 2.3.66
 _ZN4yarp2os3idl10WireWriter8writeI32ERKi@Base 2.3.66
 _ZN4yarp2os3idl10WireWriter8writeI64ERKl@Base 2.3.66
 _ZN4yarp2os3idl10WireWriter8writeTagEPKcii@Base 2.3.66
 _ZN4yarp2os3idl10WireWriter9writeBoolEb@Base 2.3.66
 _ZN4yarp2os3idl10WireWriter9writeByteERKa@Base 2.3.66
 _ZN4yarp2os3idl10WireWriterC1ERNS0_16ConnectionWriterE@Base 2.3.66
 _ZN4yarp2os3idl10WireWriterC1ERNS1_10WireReaderE@Base 2.3.66
 _ZN4yarp2os3idl10WireWriterC2ERNS0_16ConnectionWriterE@Base 2.3.66
 _ZN4yarp2os3idl10WireWriterC2ERNS1_10WireReaderE@Base 2.3.66
 _ZN4yarp2os3idl10WireWriterD1Ev@Base 2.3.66
 _ZN4yarp2os3idl10WireWriterD2Ev@Base 2.3.66
 _ZN4yarp2os3idl12WirePortable4readERNS1_10WireReaderE@Base 2.3.66
 _ZN4yarp2os3idl12WirePortable5writeERNS1_10WireWriterE@Base 2.3.66
 _ZN4yarp2os3idl9WireStateC1Ev@Base 2.3.66
 _ZN4yarp2os3idl9WireStateC2Ev@Base 2.3.66
 _ZN4yarp2os4Name18getCarrierModifierEPKcPb@Base 2.3.66
 _ZN4yarp2os4NameC1ERKNS0_11ConstStringE@Base 2.3.66
 _ZN4yarp2os4NameC2ERKNS0_11ConstStringE@Base 2.3.66
 _ZN4yarp2os4Node3addERNS0_11ContactableE@Base 2.3.66
 _ZN4yarp2os4Node5queryERKNS0_11ConstStringES4_@Base 2.3.66
 _ZN4yarp2os4Node5whereEv@Base 2.3.66
 _ZN4yarp2os4Node6removeERNS0_11ContactableE@Base 2.3.66
 _ZN4yarp2os4Node6updateERNS0_11ContactableE@Base 2.3.66
 _ZN4yarp2os4Node7prepareERKNS0_11ConstStringE@Base 2.3.66
 _ZN4yarp2os4Node9interruptEv@Base 2.3.66
 _ZN4yarp2os4NodeC1ERKNS0_11ConstStringE@Base 2.3.66
 _ZN4yarp2os4NodeC1Ev@Base 2.3.66
 _ZN4yarp2os4NodeC2ERKNS0_11ConstStringE@Base 2.3.66
 _ZN4yarp2os4NodeC2Ev@Base 2.3.66
 _ZN4yarp2os4NodeD0Ev@Base 2.3.66
 _ZN4yarp2os4NodeD1Ev@Base 2.3.66
 _ZN4yarp2os4NodeD2Ev@Base 2.3.66
 _ZN4yarp2os4Port10setRpcModeEb@Base 2.3.66
 _ZN4yarp2os4Port10setTimeoutEf@Base 2.3.66
 _ZN4yarp2os4Port10sharedOpenERS1_@Base 2.3.66
 _ZN4yarp2os4Port11getEnvelopeERNS0_10PortReaderE@Base 2.3.66
 _ZN4yarp2os4Port11promiseTypeERKNS0_4TypeE@Base 2.3.66
 _ZN4yarp2os4Port11setEnvelopeERNS0_10PortWriterE@Base 2.3.66
 _ZN4yarp2os4Port11setReporterERNS0_10PortReportE@Base 2.3.66
 _ZN4yarp2os4Port12getVerbosityEv@Base 2.3.66
 _ZN4yarp2os4Port12lockCallbackEv@Base 2.3.66
 _ZN4yarp2os4Port12replyAndDropERNS0_10PortWriterE@Base 2.3.66
 _ZN4yarp2os4Port12setAdminModeEb@Base 2.3.66
 _ZN4yarp2os4Port12setInputModeEb@Base 2.3.66
 _ZN4yarp2os4Port12setVerbosityEi@Base 2.3.66
 _ZN4yarp2os4Port13getInputCountEv@Base 2.3.66
 _ZN4yarp2os4Port13setOutputModeEb@Base 2.3.66
 _ZN4yarp2os4Port14getOutputCountEv@Base 2.3.66
 _ZN4yarp2os4Port14setAdminReaderERNS0_10PortReaderE@Base 2.3.66
 _ZN4yarp2os4Port14unlockCallbackEv@Base 2.3.66
 _ZN4yarp2os4Port15setCallbackLockEPNS0_5MutexE@Base 2.3.66
 _ZN4yarp2os4Port15tryLockCallbackEv@Base 2.3.66
 _ZN4yarp2os4Port16setReaderCreatorERNS0_17PortReaderCreatorE@Base 2.3.66
 _ZN4yarp2os4Port17acquirePropertiesEb@Base 2.3.66
 _ZN4yarp2os4Port17includeNodeInNameEb@Base 2.3.66
 _ZN4yarp2os4Port17releasePropertiesEPNS0_8PropertyE@Base 2.3.66
 _ZN4yarp2os4Port18removeCallbackLockEv@Base 2.3.66
 _ZN4yarp2os4Port21enableBackgroundWriteEb@Base 2.3.66
 _ZN4yarp2os4Port4openERKNS0_11ConstStringE@Base 2.3.66
 _ZN4yarp2os4Port4openERKNS0_7ContactEb@Base 2.3.66
 _ZN4yarp2os4Port4openERKNS0_7ContactEbPKc@Base 2.3.66
 _ZN4yarp2os4Port4readERNS0_10PortReaderEb@Base 2.3.66
 _ZN4yarp2os4Port5closeEv@Base 2.3.66
 _ZN4yarp2os4Port5replyERNS0_10PortWriterE@Base 2.3.66
 _ZN4yarp2os4Port6resumeEv@Base 2.3.66
 _ZN4yarp2os4Port7getTypeEv@Base 2.3.66
 _ZN4yarp2os4Port8openFakeERKNS0_11ConstStringE@Base 2.3.66
 _ZN4yarp2os4Port9addOutputERKNS0_11ConstStringE@Base 2.3.66
 _ZN4yarp2os4Port9addOutputERKNS0_11ConstStringES4_@Base 2.3.66
 _ZN4yarp2os4Port9addOutputERKNS0_7ContactE@Base 2.3.66
 _ZN4yarp2os4Port9getReportERNS0_10PortReportE@Base 2.3.66
 _ZN4yarp2os4Port9interruptEv@Base 2.3.66
 _ZN4yarp2os4Port9isWritingEv@Base 2.3.66
 _ZN4yarp2os4Port9setReaderERNS0_10PortReaderE@Base 2.3.66
 _ZN4yarp2os4PortC1Ev@Base 2.3.66
 _ZN4yarp2os4PortC2Ev@Base 2.3.66
 _ZN4yarp2os4PortD0Ev@Base 2.3.66
 _ZN4yarp2os4PortD1Ev@Base 2.3.66
 _ZN4yarp2os4PortD2Ev@Base 2.3.66
 _ZN4yarp2os4Time10turboBoostEv@Base 2.3.66
 _ZN4yarp2os4Time13isSystemClockEv@Base 2.3.66
 _ZN4yarp2os4Time14useCustomClockEPNS0_5ClockE@Base 2.3.66
 _ZN4yarp2os4Time14useSystemClockEv@Base 2.3.66
 _ZN4yarp2os4Time15useNetworkClockERKNS0_11ConstStringE@Base 2.3.66
 _ZN4yarp2os4Time3nowEv@Base 2.3.66
 _ZN4yarp2os4Time5delayEd@Base 2.3.66
 _ZN4yarp2os4Time5yieldEv@Base 2.3.66
 _ZN4yarp2os4Time7isValidEv@Base 2.3.66
 _ZN4yarp2os4Type11addPropertyEPKcRKNS0_5ValueE@Base 2.3.66
 _ZN4yarp2os4Type15writePropertiesEv@Base 2.3.66
 _ZN4yarp2os4TypeC1ERKS1_@Base 2.3.66
 _ZN4yarp2os4TypeC1Ev@Base 2.3.66
 _ZN4yarp2os4TypeC2ERKS1_@Base 2.3.66
 _ZN4yarp2os4TypeC2Ev@Base 2.3.66
 _ZN4yarp2os4TypeD0Ev@Base 2.3.66
 _ZN4yarp2os4TypeD1Ev@Base 2.3.66
 _ZN4yarp2os4TypeD2Ev@Base 2.3.66
 _ZN4yarp2os4TypeaSERKS1_@Base 2.3.66
 _ZN4yarp2os4exitEi@Base 2.3.66
 _ZN4yarp2os4impl10BottleImpl10fromBinaryEPKci@Base 2.3.66
 _ZN4yarp2os4impl10BottleImpl10fromStringERKNS0_11ConstStringE@Base 2.3.66
 _ZN4yarp2os4impl10BottleImpl10isCompleteEPKc@Base 2.3.66
 _ZN4yarp2os4impl10BottleImpl10specializeEi@Base 2.3.66
 _ZN4yarp2os4impl10BottleImpl14onCommencementEv@Base 2.3.66
 _ZN4yarp2os4impl10BottleImpl17getSpecializationEv@Base 2.3.66
 _ZN4yarp2os4impl10BottleImpl3addEPNS1_8StorableE@Base 2.3.66
 _ZN4yarp2os4impl10BottleImpl3popEv@Base 2.3.66
 _ZN4yarp2os4impl10BottleImpl4editEv@Base 2.3.66
 _ZN4yarp2os4impl10BottleImpl4readERNS0_16ConnectionReaderE@Base 2.3.66
 _ZN4yarp2os4impl10BottleImpl5clearEv@Base 2.3.66
 _ZN4yarp2os4impl10BottleImpl5isIntEi@Base 2.3.66
 _ZN4yarp2os4impl10BottleImpl5synchEv@Base 2.3.66
 _ZN4yarp2os4impl10BottleImpl5writeERNS0_16ConnectionWriterE@Base 2.3.66
 _ZN4yarp2os4impl10BottleImpl6getIntEi@Base 2.3.66
 _ZN4yarp2os4impl10BottleImpl6isListEi@Base 2.3.66
 _ZN4yarp2os4impl10BottleImpl7addDictEv@Base 2.3.66
 _ZN4yarp2os4impl10BottleImpl7addListEv@Base 2.3.66
 _ZN4yarp2os4impl10BottleImpl7getListEi@Base 2.3.66
 _ZN4yarp2os4impl10BottleImpl7subCodeEv@Base 2.3.66
 _ZN4yarp2os4impl10BottleImpl7toBytesERKNS0_5BytesE@Base 2.3.66
 _ZN4yarp2os4impl10BottleImpl8getBytesEv@Base 2.3.66
 _ZN4yarp2os4impl10BottleImpl8isDoubleEi@Base 2.3.66
 _ZN4yarp2os4impl10BottleImpl8isStringEi@Base 2.3.66
 _ZN4yarp2os4impl10BottleImpl8smartAddERKNS0_11ConstStringE@Base 2.3.66
 _ZN4yarp2os4impl10BottleImpl8toStringEv@Base 2.3.66
 _ZN4yarp2os4impl10BottleImpl9byteCountEv@Base 2.3.66
 _ZN4yarp2os4impl10BottleImpl9copyRangeEPKS2_ii@Base 2.3.66
 _ZN4yarp2os4impl10BottleImpl9fromBytesERKNS0_5BytesE@Base 2.3.66
 _ZN4yarp2os4impl10BottleImpl9fromBytesERNS0_16ConnectionReaderE@Base 2.3.66
 _ZN4yarp2os4impl10BottleImpl9getDoubleEi@Base 2.3.66
 _ZN4yarp2os4impl10BottleImpl9getStringEi@Base 2.3.66
 _ZN4yarp2os4impl10BottleImpl9setNestedEb@Base 2.3.66
 _ZN4yarp2os4impl10BottleImpl9storeNullE@Base 2.3.66
 _ZN4yarp2os4impl10BottleImplC1EPNS0_10SearchableE@Base 2.3.66
 _ZN4yarp2os4impl10BottleImplC1Ev@Base 2.3.66
 _ZN4yarp2os4impl10BottleImplC2EPNS0_10SearchableE@Base 2.3.66
 _ZN4yarp2os4impl10BottleImplC2Ev@Base 2.3.66
 _ZN4yarp2os4impl10BottleImplD0Ev@Base 2.3.66
 _ZN4yarp2os4impl10BottleImplD1Ev@Base 2.3.66
 _ZN4yarp2os4impl10BottleImplD2Ev@Base 2.3.66
 _ZN4yarp2os4impl10NameClient10setContactERKNS0_7ContactE@Base 2.3.66
 _ZN4yarp2os4impl10NameClient12registerNameERKNS0_11ConstStringE@Base 2.3.66
 _ZN4yarp2os4impl10NameClient12registerNameERKNS0_11ConstStringERKNS0_7ContactE@Base 2.3.66
 _ZN4yarp2os4impl10NameClient13updateAddressEv@Base 2.3.66
 _ZN4yarp2os4impl10NameClient14extractAddressERKNS0_11ConstStringE@Base 2.3.66
 _ZN4yarp2os4impl10NameClient14extractAddressERKNS0_6BottleE@Base 2.3.66
 _ZN4yarp2os4impl10NameClient14instanceClosedE@Base 2.3.66
 _ZN4yarp2os4impl10NameClient14unregisterNameERKNS0_11ConstStringE@Base 2.3.66
 _ZN4yarp2os4impl10NameClient4sendERKNS0_11ConstStringEb@Base 2.3.66
 _ZN4yarp2os4impl10NameClient4sendERNS0_6BottleES4_@Base 2.3.66
 _ZN4yarp2os4impl10NameClient5setupEv@Base 2.3.66
 _ZN4yarp2os4impl10NameClient8instanceE@Base 2.3.66
 _ZN4yarp2os4impl10NameClient9getServerEv@Base 2.3.66
 _ZN4yarp2os4impl10NameClient9queryNameERKNS0_11ConstStringE@Base 2.3.66
 _ZN4yarp2os4impl10NameClientC1Ev@Base 2.3.66
 _ZN4yarp2os4impl10NameClientC2Ev@Base 2.3.66
 _ZN4yarp2os4impl10NameClientD0Ev@Base 2.3.66
 _ZN4yarp2os4impl10NameClientD1Ev@Base 2.3.66
 _ZN4yarp2os4impl10NameClientD2Ev@Base 2.3.66
 _ZN4yarp2os4impl10NameConfig10createPathERKNS0_11ConstStringEi@Base 2.3.66
 _ZN4yarp2os4impl10NameConfig10fromStringERKNS0_11ConstStringE@Base 2.3.66
 _ZN4yarp2os4impl10NameConfig10getAddressEv@Base 2.3.66
 _ZN4yarp2os4impl10NameConfig10readConfigERKNS0_11ConstStringE@Base 2.3.66
 _ZN4yarp2os4impl10NameConfig10setAddressERKNS0_7ContactE@Base 2.3.66
 _ZN4yarp2os4impl10NameConfig11getHostNameEbNS0_11ConstStringE@Base 2.3.66
 _ZN4yarp2os4impl10NameConfig11isLocalNameERKNS0_11ConstStringE@Base 2.3.66
 _ZN4yarp2os4impl10NameConfig11writeConfigERKNS0_11ConstStringES5_@Base 2.3.66
 _ZN4yarp2os4impl10NameConfig12getNamespaceEb@Base 2.3.66
 _ZN4yarp2os4impl10NameConfig12setNamespaceERKNS0_11ConstStringE@Base 2.3.66
 _ZN4yarp2os4impl10NameConfig13getNamespacesEb@Base 2.3.66
 _ZN4yarp2os4impl10NameConfig13getSafeStringERKNS0_11ConstStringE@Base 2.3.66
 _ZN4yarp2os4impl10NameConfig14expandFilenameEPKc@Base 2.3.66
 _ZN4yarp2os4impl10NameConfig14getIpsAsBottleEv@Base 2.3.66
 _ZN4yarp2os4impl10NameConfig17getConfigFileNameEPKcS4_@Base 2.3.66
 _ZN4yarp2os4impl10NameConfig6getIpsEv@Base 2.3.66
 _ZN4yarp2os4impl10NameConfig6toFileEb@Base 2.3.66
 _ZN4yarp2os4impl10NameConfig8fromFileEPKc@Base 2.3.66
 _ZN4yarp2os4impl10NameServer11cmdAnnounceEiPPc@Base 2.3.66
 _ZN4yarp2os4impl10NameServer11cmdRegisterEiPPc@Base 2.3.66
 _ZN4yarp2os4impl10NameServer11ncmdVersionEiPPc@Base 2.3.66
 _ZN4yarp2os4impl10NameServer12registerNameERKNS0_11ConstStringERKNS0_7ContactES5_@Base 2.3.66
 _ZN4yarp2os4impl10NameServer13cmdUnregisterEiPPc@Base 2.3.66
 _ZN4yarp2os4impl10NameServer13getHostRecordERKNS0_11ConstStringEb@Base 2.3.66
 _ZN4yarp2os4impl10NameServer13getNameRecordERKNS0_11ConstStringEb@Base 2.3.66
 _ZN4yarp2os4impl10NameServer14unregisterNameERKNS0_11ConstStringE@Base 2.3.66
 _ZN4yarp2os4impl10NameServer17cmdGarbageCollectEiPPc@Base 2.3.66
 _ZN4yarp2os4impl10NameServer4mainEiPPc@Base 2.3.66
 _ZN4yarp2os4impl10NameServer5applyERKNS0_11ConstStringERKNS0_7ContactE@Base 2.3.66
 _ZN4yarp2os4impl10NameServer5applyERKNS0_6BottleERS3_RKNS0_7ContactE@Base 2.3.66
 _ZN4yarp2os4impl10NameServer5setupEv@Base 2.3.66
 _ZN4yarp2os4impl10NameServer6botifyERKNS0_7ContactE@Base 2.3.66
 _ZN4yarp2os4impl10NameServer6cmdBotEiPPc@Base 2.3.66
 _ZN4yarp2os4impl10NameServer6cmdGetEiPPc@Base 2.3.66
 _ZN4yarp2os4impl10NameServer6cmdSetEiPPc@Base 2.3.66
 _ZN4yarp2os4impl10NameServer7cmdHelpEiPPc@Base 2.3.66
 _ZN4yarp2os4impl10NameServer7cmdListEiPPc@Base 2.3.66
 _ZN4yarp2os4impl10NameServer7ncmdGetEiPPc@Base 2.3.66
 _ZN4yarp2os4impl10NameServer7ncmdSetEiPPc@Base 2.3.66
 _ZN4yarp2os4impl10NameServer7textifyERKNS0_7ContactE@Base 2.3.66
 _ZN4yarp2os4impl10NameServer8cmdCheckEiPPc@Base 2.3.66
 _ZN4yarp2os4impl10NameServer8cmdMatchEiPPc@Base 2.3.66
 _ZN4yarp2os4impl10NameServer8cmdQueryEiPPc@Base 2.3.66
 _ZN4yarp2os4impl10NameServer8cmdRouteEiPPc@Base 2.3.66
 _ZN4yarp2os4impl10NameServer8ncmdListEiPPc@Base 2.3.66
 _ZN4yarp2os4impl10NameServer9ncmdQueryEiPPc@Base 2.3.66
 _ZN4yarp2os4impl10NameServer9queryNameERKNS0_11ConstStringE@Base 2.3.66
 _ZN4yarp2os4impl10NameServer9terminateERKNS0_11ConstStringE@Base 2.3.66
 _ZN4yarp2os4impl10StoreInt6410fromStringERKNS0_11ConstStringE@Base 2.3.66
 _ZN4yarp2os4impl10StoreInt644codeE@Base 2.3.66
 _ZN4yarp2os4impl10StoreInt647readRawERNS0_16ConnectionReaderE@Base 2.3.66
 _ZN4yarp2os4impl10StoreInt648writeRawERNS0_16ConnectionWriterE@Base 2.3.66
 _ZN4yarp2os4impl10StoreVocab10fromStringERKNS0_11ConstStringE@Base 2.3.66
 _ZN4yarp2os4impl10StoreVocab16fromStringNestedERKNS0_11ConstStringE@Base 2.3.66
 _ZN4yarp2os4impl10StoreVocab4codeE@Base 2.3.66
 _ZN4yarp2os4impl10StoreVocab7readRawERNS0_16ConnectionReaderE@Base 2.3.66
 _ZN4yarp2os4impl10StoreVocab8writeRawERNS0_16ConnectionWriterE@Base 2.3.66
 _ZN4yarp2os4impl10ThreadImpl10afterStartEb@Base 2.3.66
 _ZN4yarp2os4impl10ThreadImpl10askToCloseEv@Base 2.3.66
 _ZN4yarp2os4impl10ThreadImpl10setOptionsEi@Base 2.3.66
 _ZN4yarp2os4impl10ThreadImpl10threadInitEv@Base 2.3.66
 _ZN4yarp2os4impl10ThreadImpl11beforeStartEv@Base 2.3.66
 _ZN4yarp2os4impl10ThreadImpl11changeCountEi@Base 2.3.66
 _ZN4yarp2os4impl10ThreadImpl11getPriorityEv@Base 2.3.66
 _ZN4yarp2os4impl10ThreadImpl11setPriorityEii@Base 2.3.66
 _ZN4yarp2os4impl10ThreadImpl11synchroPostEv@Base 2.3.66
 _ZN4yarp2os4impl10ThreadImpl11synchroWaitEv@Base 2.3.66
 _ZN4yarp2os4impl10ThreadImpl11threadCountE@Base 2.3.66
 _ZN4yarp2os4impl10ThreadImpl11threadMutexE@Base 2.3.66
 _ZN4yarp2os4impl10ThreadImpl13threadReleaseEv@Base 2.3.66
 _ZN4yarp2os4impl10ThreadImpl14getKeyOfCallerEv@Base 2.3.66
 _ZN4yarp2os4impl10ThreadImpl16defaultStackSizeE@Base 2.3.66
 _ZN4yarp2os4impl10ThreadImpl19setDefaultStackSizeEi@Base 2.3.66
 _ZN4yarp2os4impl10ThreadImpl3runEv@Base 2.3.66
 _ZN4yarp2os4impl10ThreadImpl4finiEv@Base 2.3.66
 _ZN4yarp2os4impl10ThreadImpl4initEv@Base 2.3.66
 _ZN4yarp2os4impl10ThreadImpl4joinEd@Base 2.3.66
 _ZN4yarp2os4impl10ThreadImpl5closeEv@Base 2.3.66
 _ZN4yarp2os4impl10ThreadImpl5startEv@Base 2.3.66
 _ZN4yarp2os4impl10ThreadImpl6getKeyEv@Base 2.3.66
 _ZN4yarp2os4impl10ThreadImpl6getTidEv@Base 2.3.66
 _ZN4yarp2os4impl10ThreadImpl6notifyEb@Base 2.3.66
 _ZN4yarp2os4impl10ThreadImpl8getCountEv@Base 2.3.66
 _ZN4yarp2os4impl10ThreadImpl9getPolicyEv@Base 2.3.66
 _ZN4yarp2os4impl10ThreadImpl9isClosingEv@Base 2.3.66
 _ZN4yarp2os4impl10ThreadImpl9timeMutexE@Base 2.3.66
 _ZN4yarp2os4impl10ThreadImplC1EPNS0_8RunnableE@Base 2.3.66
 _ZN4yarp2os4impl10ThreadImplC1Ev@Base 2.3.66
 _ZN4yarp2os4impl10ThreadImplC2EPNS0_8RunnableE@Base 2.3.66
 _ZN4yarp2os4impl10ThreadImplC2Ev@Base 2.3.66
 _ZN4yarp2os4impl10ThreadImplD0Ev@Base 2.3.66
 _ZN4yarp2os4impl10ThreadImplD1Ev@Base 2.3.66
 _ZN4yarp2os4impl10ThreadImplD2Ev@Base 2.3.66
 _ZN4yarp2os4impl11PortCommand4readERNS0_16ConnectionReaderE@Base 2.3.66
 _ZN4yarp2os4impl11PortCommand5writeERNS0_16ConnectionWriterE@Base 2.3.66
 _ZN4yarp2os4impl11StoreDouble10fromStringERKNS0_11ConstStringE@Base 2.3.66
 _ZN4yarp2os4impl11StoreDouble4codeE@Base 2.3.66
 _ZN4yarp2os4impl11StoreDouble7readRawERNS0_16ConnectionReaderE@Base 2.3.66
 _ZN4yarp2os4impl11StoreDouble8writeRawERNS0_16ConnectionWriterE@Base 2.3.66
 _ZN4yarp2os4impl11StoreString10fromStringERKNS0_11ConstStringE@Base 2.3.66
 _ZN4yarp2os4impl11StoreString16fromStringNestedERKNS0_11ConstStringE@Base 2.3.66
 _ZN4yarp2os4impl11StoreString4codeE@Base 2.3.66
 _ZN4yarp2os4impl11StoreString7readRawERNS0_16ConnectionReaderE@Base 2.3.66
 _ZN4yarp2os4impl11StoreString8writeRawERNS0_16ConnectionWriterE@Base 2.3.66
 _ZN4yarp2os4impl17DgramTwoWayStream10getMonitorEv@Base 2.3.66
 _ZN4yarp2os4impl17DgramTwoWayStream11beginPacketEv@Base 2.3.66
 _ZN4yarp2os4impl17DgramTwoWayStream13removeMonitorEv@Base 2.3.66
 _ZN4yarp2os4impl17DgramTwoWayStream13restrictMcastEP20ACE_SOCK_Dgram_McastRKNS0_7ContactES7_b@Base 2.3.66
 _ZN4yarp2os4impl17DgramTwoWayStream16getTypeOfServiceEv@Base 2.3.66
 _ZN4yarp2os4impl17DgramTwoWayStream16setTypeOfServiceEi@Base 2.3.66
 _ZN4yarp2os4impl17DgramTwoWayStream22configureSystemBuffersEv@Base 2.3.66
 _ZN4yarp2os4impl17DgramTwoWayStream4isOkEv@Base 2.3.66
 _ZN4yarp2os4impl17DgramTwoWayStream4joinERKNS0_7ContactEbS5_@Base 2.3.66
 _ZN4yarp2os4impl17DgramTwoWayStream4openERKNS0_7ContactE@Base 2.3.66
 _ZN4yarp2os4impl17DgramTwoWayStream4openERKNS0_7ContactES5_@Base 2.3.66
 _ZN4yarp2os4impl17DgramTwoWayStream4readERKNS0_5BytesE@Base 2.3.66
 _ZN4yarp2os4impl17DgramTwoWayStream5flushEv@Base 2.3.66
 _ZN4yarp2os4impl17DgramTwoWayStream5resetEv@Base 2.3.66
 _ZN4yarp2os4impl17DgramTwoWayStream5writeERKNS0_5BytesE@Base 2.3.66
 _ZN4yarp2os4impl17DgramTwoWayStream8allocateEii@Base 2.3.66
 _ZN4yarp2os4impl17DgramTwoWayStream9closeMainEv@Base 2.3.66
 _ZN4yarp2os4impl17DgramTwoWayStream9endPacketEv@Base 2.3.66
 _ZN4yarp2os4impl17DgramTwoWayStream9interruptEv@Base 2.3.66
 _ZN4yarp2os4impl17DgramTwoWayStream9openMcastERKNS0_7ContactES5_@Base 2.3.66
 _ZN4yarp2os4impl17DgramTwoWayStreamD0Ev@Base 2.3.66
 _ZN4yarp2os4impl17DgramTwoWayStreamD1Ev@Base 2.3.66
 _ZN4yarp2os4impl17DgramTwoWayStreamD2Ev@Base 2.3.66
 _ZN4yarp2os4impl18FallbackNameClient10getAddressEv@Base 2.3.66
 _ZN4yarp2os4impl18FallbackNameClient3runEv@Base 2.3.66
 _ZN4yarp2os4impl18FallbackNameClient4seekEv@Base 2.3.66
 _ZN4yarp2os4impl18FallbackNameClient5closeEv@Base 2.3.66
 _ZN4yarp2os4impl18FallbackNameServer10getAddressEv@Base 2.3.66
 _ZN4yarp2os4impl18FallbackNameServer3runEv@Base 2.3.66
 _ZN4yarp2os4impl18FallbackNameServer5closeEv@Base 2.3.66
 _ZN4yarp2os4impl20PortReaderBufferBase10attachBaseERNS0_4PortE@Base 2.3.66
 _ZN4yarp2os4impl20PortReaderBufferBase10setCreatorEPNS1_27PortReaderBufferBaseCreatorE@Base 2.3.66
 _ZN4yarp2os4impl20PortReaderBufferBase10setReplierERNS0_10PortReaderE@Base 2.3.66
 _ZN4yarp2os4impl20PortReaderBufferBase11getEnvelopeERNS0_10PortReaderE@Base 2.3.66
 _ZN4yarp2os4impl20PortReaderBufferBase12getMaxBufferEv@Base 2.3.66
 _ZN4yarp2os4impl20PortReaderBufferBase13setAllowReuseEb@Base 2.3.66
 _ZN4yarp2os4impl20PortReaderBufferBase14setAutoReleaseEb@Base 2.3.66
 _ZN4yarp2os4impl20PortReaderBufferBase15setTargetPeriodEd@Base 2.3.66
 _ZN4yarp2os4impl20PortReaderBufferBase16acceptObjectBaseEPNS0_10PortReaderEPNS0_10PortWriterE@Base 2.3.66
 _ZN4yarp2os4impl20PortReaderBufferBase16forgetObjectBaseEPNS0_10PortReaderEPNS0_10PortWriterE@Base 2.3.66
 _ZN4yarp2os4impl20PortReaderBufferBase4initEv@Base 2.3.66
 _ZN4yarp2os4impl20PortReaderBufferBase4readERNS0_16ConnectionReaderE@Base 2.3.66
 _ZN4yarp2os4impl20PortReaderBufferBase5checkEv@Base 2.3.66
 _ZN4yarp2os4impl20PortReaderBufferBase5clearEv@Base 2.3.66
 _ZN4yarp2os4impl20PortReaderBufferBase6createEv@Base 2.3.66
 _ZN4yarp2os4impl20PortReaderBufferBase7acquireEv@Base 2.3.66
 _ZN4yarp2os4impl20PortReaderBufferBase7releaseEPNS0_10PortReaderE@Base 2.3.66
 _ZN4yarp2os4impl20PortReaderBufferBase7releaseEPv@Base 2.3.66
 _ZN4yarp2os4impl20PortReaderBufferBase8isClosedEv@Base 2.3.66
 _ZN4yarp2os4impl20PortReaderBufferBase8readBaseERbb@Base 2.3.66
 _ZN4yarp2os4impl20PortReaderBufferBase8setPruneEb@Base 2.3.66
 _ZN4yarp2os4impl20PortReaderBufferBase9interruptEv@Base 2.3.66
 _ZN4yarp2os4impl20PortReaderBufferBaseC1Ej@Base 2.3.66
 _ZN4yarp2os4impl20PortReaderBufferBaseC2Ej@Base 2.3.66
 _ZN4yarp2os4impl20PortReaderBufferBaseD0Ev@Base 2.3.66
 _ZN4yarp2os4impl20PortReaderBufferBaseD1Ev@Base 2.3.66
 _ZN4yarp2os4impl20PortReaderBufferBaseD2Ev@Base 2.3.66
 _ZN4yarp2os4impl22StreamConnectionReader11flushWriterEv@Base 2.3.66
 _ZN4yarp2os4impl22StreamConnectionReader12readEnvelopeEv@Base 2.3.66
 _ZN4yarp2os4impl22StreamConnectionReader15convertTextModeEv@Base 2.3.66
 _ZN4yarp2os4impl22StreamConnectionReader22getConnectionModifiersEv@Base 2.3.66
 _ZN4yarp2os4impl22StreamConnectionReader9getWriterEv@Base 2.3.66
 _ZN4yarp2os4impl22StreamConnectionReaderD0Ev@Base 2.3.66
 _ZN4yarp2os4impl22StreamConnectionReaderD1Ev@Base 2.3.66
 _ZN4yarp2os4impl22StreamConnectionReaderD2Ev@Base 2.3.66
 _ZN4yarp2os4impl24BufferedConnectionWriter15convertTextModeEv@Base 2.3.66
 _ZN4yarp2os4impl24BufferedConnectionWriter20applyConvertTextModeEv@Base 2.3.66
 _ZN4yarp2os4impl24BufferedConnectionWriter4pushERKNS0_5BytesEb@Base 2.3.66
 _ZN4yarp2os4impl24BufferedConnectionWriter5writeERNS0_10PortReaderE@Base 2.3.66
 _ZN4yarp2os4impl24BufferedConnectionWriter5writeERNS0_12OutputStreamE@Base 2.3.66
 _ZN4yarp2os4impl24BufferedConnectionWriter7addPoolERKNS0_5BytesE@Base 2.3.66
 _ZN4yarp2os4impl24BufferedConnectionWriter7restartEv@Base 2.3.66
 _ZN4yarp2os4impl24BufferedConnectionWriter8toStringEv@Base 2.3.66
 _ZN4yarp2os4impl27PortReaderBufferBaseCreatorD0Ev@Base 2.3.66
 _ZN4yarp2os4impl27PortReaderBufferBaseCreatorD1Ev@Base 2.3.66
 _ZN4yarp2os4impl27PortReaderBufferBaseCreatorD2Ev@Base 2.3.66
 _ZN4yarp2os4impl6Logger3getEv@Base 2.3.66
 _ZN4yarp2os4impl6Logger4exitEi@Base 2.3.66
 _ZN4yarp2os4impl6Logger4finiEv@Base 2.3.66
 _ZN4yarp2os4impl6Logger4rootE@Base 2.3.66
 _ZN4yarp2os4impl6Logger4showEiRKNS0_11ConstStringE@Base 2.3.66
 _ZN4yarp2os4impl6Logger6setPidEv@Base 2.3.66
 _ZN4yarp2os4impl7TcpFace15getLocalAddressEv@Base 2.3.66
 _ZN4yarp2os4impl7TcpFace4openERKNS0_7ContactE@Base 2.3.66
 _ZN4yarp2os4impl7TcpFace4readEv@Base 2.3.66
 _ZN4yarp2os4impl7TcpFace5closeEv@Base 2.3.66
 _ZN4yarp2os4impl7TcpFace5writeERKNS0_7ContactE@Base 2.3.66
 _ZN4yarp2os4impl7TcpFace9closeFaceEv@Base 2.3.66
 _ZN4yarp2os4impl7TcpFaceD0Ev@Base 2.3.66
 _ZN4yarp2os4impl7TcpFaceD1Ev@Base 2.3.66
 _ZN4yarp2os4impl7TcpFaceD2Ev@Base 2.3.66
 _ZN4yarp2os4impl8AuthHMAC10authSourceEPNS0_11InputStreamEPNS0_12OutputStreamE@Base 2.3.66
 _ZN4yarp2os4impl8AuthHMAC10check_hmacEPhS3_@Base 2.3.66
 _ZN4yarp2os4impl8AuthHMAC10fill_nonceEPh@Base 2.3.66
 _ZN4yarp2os4impl8AuthHMAC12receive_hmacEPNS0_11InputStreamEPhS5_@Base 2.3.66
 _ZN4yarp2os4impl8AuthHMAC8authDestEPNS0_11InputStreamEPNS0_12OutputStreamE@Base 2.3.66
 _ZN4yarp2os4impl8AuthHMAC9send_hmacEPNS0_12OutputStreamEPhS5_@Base 2.3.66
 _ZN4yarp2os4impl8AuthHMACC1Ev@Base 2.3.66
 _ZN4yarp2os4impl8AuthHMACC2Ev@Base 2.3.66
 _ZN4yarp2os4impl8Carriers11getInstanceEv@Base 2.3.66
 _ZN4yarp2os4impl8Carriers12listCarriersEv@Base 2.3.66
 _ZN4yarp2os4impl8Carriers13chooseCarrierEPKNS0_11ConstStringEPKNS0_5BytesEbb@Base 2.3.66
 _ZN4yarp2os4impl8Carriers13chooseCarrierERKNS0_11ConstStringE@Base 2.3.66
 _ZN4yarp2os4impl8Carriers13chooseCarrierERKNS0_5BytesE@Base 2.3.66
 _ZN4yarp2os4impl8Carriers14removeInstanceEv@Base 2.3.66
 _ZN4yarp2os4impl8Carriers18getCarrierTemplateERKNS0_11ConstStringE@Base 2.3.66
 _ZN4yarp2os4impl8Carriers19addCarrierPrototypeEPNS0_7CarrierE@Base 2.3.66
 _ZN4yarp2os4impl8Carriers22yarp_carriers_instanceE@Base 2.3.66
 _ZN4yarp2os4impl8Carriers5clearEv@Base 2.3.66
 _ZN4yarp2os4impl8Carriers6listenERKNS0_7ContactE@Base 2.3.66
 _ZN4yarp2os4impl8Carriers7connectERKNS0_7ContactE@Base 2.3.66
 _ZN4yarp2os4impl8CarriersC1Ev@Base 2.3.66
 _ZN4yarp2os4impl8CarriersC2Ev@Base 2.3.66
 _ZN4yarp2os4impl8CarriersD0Ev@Base 2.3.66
 _ZN4yarp2os4impl8CarriersD1Ev@Base 2.3.66
 _ZN4yarp2os4impl8CarriersD2Ev@Base 2.3.66
 _ZN4yarp2os4impl8PortCore10adminBlockERNS0_16ConnectionReaderEPvPNS0_12OutputStreamE@Base 2.3.66
 _ZN4yarp2os4impl8PortCore10cleanUnitsEb@Base 2.3.66
 _ZN4yarp2os4impl8PortCore10closeUnitsEv@Base 2.3.66
 _ZN4yarp2os4impl8PortCore10removeUnitERKNS0_5RouteEbPb@Base 2.3.66
 _ZN4yarp2os4impl8PortCore10reportUnitEPNS1_12PortCoreUnitEb@Base 2.3.66
 _ZN4yarp2os4impl8PortCore10sendHelperERNS0_10PortWriterEiPNS0_10PortReaderEPS3_@Base 2.3.66
 _ZN4yarp2os4impl8PortCore11getEnvelopeERNS0_10PortReaderE@Base 2.3.66
 _ZN4yarp2os4impl8PortCore11getEnvelopeEv@Base 2.3.66
 _ZN4yarp2os4impl8PortCore11manualStartEPKc@Base 2.3.66
 _ZN4yarp2os4impl8PortCore11removeInputERKNS0_11ConstStringEPvPNS0_12OutputStreamE@Base 2.3.66
 _ZN4yarp2os4impl8PortCore11setEnvelopeERKNS0_11ConstStringE@Base 2.3.66
 _ZN4yarp2os4impl8PortCore11setEnvelopeERNS0_10PortWriterE@Base 2.3.66
 _ZN4yarp2os4impl8PortCore12removeOutputERKNS0_11ConstStringEPvPNS0_12OutputStreamE@Base 2.3.66
 _ZN4yarp2os4impl8PortCore13getEventCountEv@Base 2.3.66
 _ZN4yarp2os4impl8PortCore13getInputCountEv@Base 2.3.66
 _ZN4yarp2os4impl8PortCore14getOutputCountEv@Base 2.3.66
 _ZN4yarp2os4impl8PortCore14setReadCreatorERNS0_17PortReaderCreatorE@Base 2.3.66
 _ZN4yarp2os4impl8PortCore14setReadHandlerERNS0_10PortReaderE@Base 2.3.66
 _ZN4yarp2os4impl8PortCore16getTypeOfServiceEPNS1_12PortCoreUnitE@Base 2.3.66
 _ZN4yarp2os4impl8PortCore16notifyCompletionEPv@Base 2.3.66
 _ZN4yarp2os4impl8PortCore16setTypeOfServiceEPNS1_12PortCoreUnitEi@Base 2.3.66
 _ZN4yarp2os4impl8PortCore17acquirePropertiesEb@Base 2.3.66
 _ZN4yarp2os4impl8PortCore17attachPortMonitorERNS0_8PropertyEbRNS0_11ConstStringE@Base 2.3.66
 _ZN4yarp2os4impl8PortCore17releasePropertiesEPNS0_8PropertyE@Base 2.3.66
 _ZN4yarp2os4impl8PortCore17setReportCallbackEPNS0_10PortReportE@Base 2.3.66
 _ZN4yarp2os4impl8PortCore18dettachPortMonitorEb@Base 2.3.66
 _ZN4yarp2os4impl8PortCore19setAdminReadHandlerERNS0_10PortReaderE@Base 2.3.66
 _ZN4yarp2os4impl8PortCore25setProcessSchedulingParamEii@Base 2.3.66
 _ZN4yarp2os4impl8PortCore3runEv@Base 2.3.66
 _ZN4yarp2os4impl8PortCore4sendERNS0_10PortWriterEPNS0_10PortReaderEPS3_@Base 2.3.66
 _ZN4yarp2os4impl8PortCore5closeEv@Base 2.3.66
 _ZN4yarp2os4impl8PortCore5startEv@Base 2.3.66
 _ZN4yarp2os4impl8PortCore6getPidEv@Base 2.3.66
 _ZN4yarp2os4impl8PortCore6isUnitERKNS0_5RouteEi@Base 2.3.66
 _ZN4yarp2os4impl8PortCore6listenERKNS0_7ContactEb@Base 2.3.66
 _ZN4yarp2os4impl8PortCore6reportERKNS0_8PortInfoE@Base 2.3.66
 _ZN4yarp2os4impl8PortCore6resumeEv@Base 2.3.66
 _ZN4yarp2os4impl8PortCore8addInputEPNS0_13InputProtocolE@Base 2.3.66
 _ZN4yarp2os4impl8PortCore8describeEPvPNS0_12OutputStreamE@Base 2.3.66
 _ZN4yarp2os4impl8PortCore8describeERNS0_10PortReportE@Base 2.3.66
 _ZN4yarp2os4impl8PortCore9addOutputEPNS0_14OutputProtocolE@Base 2.3.66
 _ZN4yarp2os4impl8PortCore9addOutputERKNS0_11ConstStringEPvPNS0_12OutputStreamEb@Base 2.3.66
 _ZN4yarp2os4impl8PortCore9closeMainEv@Base 2.3.66
 _ZN4yarp2os4impl8PortCore9interruptEv@Base 2.3.66
 _ZN4yarp2os4impl8PortCore9isWritingEv@Base 2.3.66
 _ZN4yarp2os4impl8PortCore9readBlockERNS0_16ConnectionReaderEPvPNS0_12OutputStreamE@Base 2.3.66
 _ZN4yarp2os4impl8PortCore9reapUnitsEv@Base 2.3.66
 _ZN4yarp2os4impl8PortCoreD0Ev@Base 2.3.66
 _ZN4yarp2os4impl8PortCoreD1Ev@Base 2.3.66
 _ZN4yarp2os4impl8PortCoreD2Ev@Base 2.3.66
 _ZN4yarp2os4impl8Protocol10setCarrierERKNS0_11ConstStringE@Base 2.3.66
 _ZN4yarp2os4impl8Protocol11closeHelperEv@Base 2.3.66
 _ZN4yarp2os4impl8Protocol11expectIndexEv@Base 2.3.66
 _ZN4yarp2os4impl8Protocol12expectHeaderEv@Base 2.3.66
 _ZN4yarp2os4impl8Protocol15getRecvDelegateEv@Base 2.3.66
 _ZN4yarp2os4impl8Protocol15getSendDelegateEv@Base 2.3.66
 _ZN4yarp2os4impl8Protocol15respondToHeaderEv@Base 2.3.66
 _ZN4yarp2os4impl8Protocol18getSenderSpecifierEv@Base 2.3.66
 _ZN4yarp2os4impl8Protocol23expectProtocolSpecifierEv@Base 2.3.66
 _ZN4yarp2os4impl8Protocol4openERKNS0_11ConstStringE@Base 2.3.66
 _ZN4yarp2os4impl8Protocol4openERKNS0_5RouteE@Base 2.3.66
 _ZN4yarp2os4impl8Protocol5writeERNS0_11SizedWriterE@Base 2.3.66
 _ZN4yarp2os4impl8Protocol7sendAckEv@Base 2.3.66
 _ZN4yarp2os4impl8Protocol8setRouteERKNS0_5RouteE@Base 2.3.66
 _ZN4yarp2os4impl8Protocol9beginReadEv@Base 2.3.66
 _ZN4yarp2os4impl8Protocol9expectAckEv@Base 2.3.66
 _ZN4yarp2os4impl8Protocol9interruptEv@Base 2.3.66
 _ZN4yarp2os4impl8ProtocolC1EPNS0_12TwoWayStreamE@Base 2.3.66
 _ZN4yarp2os4impl8ProtocolC2EPNS0_12TwoWayStreamE@Base 2.3.66
 _ZN4yarp2os4impl8Storable12createByCodeEi@Base 2.3.66
 _ZN4yarp2os4impl8Storable4readERNS0_16ConnectionReaderE@Base 2.3.66
 _ZN4yarp2os4impl8Storable5writeERNS0_16ConnectionWriterE@Base 2.3.66
 _ZN4yarp2os4impl8StorableD0Ev@Base 2.3.66
 _ZN4yarp2os4impl8StorableD1Ev@Base 2.3.66
 _ZN4yarp2os4impl8StorableD2Ev@Base 2.3.66
 _ZN4yarp2os4impl8StoreInt10fromStringERKNS0_11ConstStringE@Base 2.3.66
 _ZN4yarp2os4impl8StoreInt4codeE@Base 2.3.66
 _ZN4yarp2os4impl8StoreInt7readRawERNS0_16ConnectionReaderE@Base 2.3.66
 _ZN4yarp2os4impl8StoreInt8writeRawERNS0_16ConnectionWriterE@Base 2.3.66
 _ZN4yarp2os4impl8UnitTest11runSubTestsEiPPc@Base 2.3.66
 _ZN4yarp2os4impl8UnitTest14checkEqualImplERKNS0_11ConstStringES5_PKcS7_S7_S7_i@Base 2.3.66
 _ZN4yarp2os4impl8UnitTest14checkEqualImplEiiPKcS4_S4_S4_i@Base 2.3.66
 _ZN4yarp2os4impl8UnitTest14heapMonitorEndEv@Base 2.3.66
 _ZN4yarp2os4impl8UnitTest14heapMonitorOpsEv@Base 2.3.66
 _ZN4yarp2os4impl8UnitTest14stopTestSystemEv@Base 2.3.66
 _ZN4yarp2os4impl8UnitTest15saveEnvironmentEPKc@Base 2.3.66
 _ZN4yarp2os4impl8UnitTest15startTestSystemEv@Base 2.3.66
 _ZN4yarp2os4impl8UnitTest16heapMonitorBeginEb@Base 2.3.66
 _ZN4yarp2os4impl8UnitTest17checkEqualishImplEddPKcS4_S4_S4_i@Base 2.3.66
 _ZN4yarp2os4impl8UnitTest18restoreEnvironmentEv@Base 2.3.66
 _ZN4yarp2os4impl8UnitTest20heapMonitorSupportedEv@Base 2.3.66
 _ZN4yarp2os4impl8UnitTest3addERS2_@Base 2.3.66
 _ZN4yarp2os4impl8UnitTest3runEiPPc@Base 2.3.66
 _ZN4yarp2os4impl8UnitTest3runEv@Base 2.3.66
 _ZN4yarp2os4impl8UnitTest5clearEv@Base 2.3.66
 _ZN4yarp2os4impl8UnitTest5countEi@Base 2.3.66
 _ZN4yarp2os4impl8UnitTest6reportEiRKNS0_11ConstStringE@Base 2.3.66
 _ZN4yarp2os4impl8UnitTest7getRootEv@Base 2.3.66
 _ZN4yarp2os4impl8UnitTest7theRootE@Base 2.3.66
 _ZN4yarp2os4impl8UnitTest8humanizeERKNS0_11ConstStringE@Base 2.3.66
 _ZN4yarp2os4impl8UnitTestC1EPS2_@Base 2.3.66
 _ZN4yarp2os4impl8UnitTestC1Ev@Base 2.3.66
 _ZN4yarp2os4impl8UnitTestC2EPS2_@Base 2.3.66
 _ZN4yarp2os4impl8UnitTestC2Ev@Base 2.3.66
 _ZN4yarp2os4impl9Companion10cmdConnectEiPPc@Base 2.3.66
 _ZN4yarp2os4impl9Companion10cmdVersionEiPPc@Base 2.3.66
 _ZN4yarp2os4impl9Companion10disconnectEPKcS4_b@Base 2.3.66
 _ZN4yarp2os4impl9Companion10readStringEPb@Base 2.3.66
 _ZN4yarp2os4impl9Companion11cmdResourceEiPPc@Base 2.3.66
 _ZN4yarp2os4impl9Companion11sendMessageERKNS0_11ConstStringERNS0_10PortWriterERS3_b@Base 2.3.66
 _ZN4yarp2os4impl9Companion11unsubscribeEPKcS4_@Base 2.3.66
 _ZN4yarp2os4impl9Companion12cmdDetectRosEb@Base 2.3.66
 _ZN4yarp2os4impl9Companion12cmdNamespaceEiPPc@Base 2.3.66
 _ZN4yarp2os4impl9Companion12cmdReadWriteEiPPc@Base 2.3.66
 _ZN4yarp2os4impl9Companion12cmdRpcServerEiPPc@Base 2.3.66
 _ZN4yarp2os4impl9Companion12cmdTerminateEiPPc@Base 2.3.66
 _ZN4yarp2os4impl9Companion13cmdDisconnectEiPPc@Base 2.3.66
 _ZN4yarp2os4impl9Companion13cmdRegressionEiPPc@Base 2.3.66
 _ZN4yarp2os4impl9Companion15disconnectInputEPKcS4_b@Base 2.3.66
 _ZN4yarp2os4impl9Companion3rpcEPKcS4_@Base 2.3.66
 _ZN4yarp2os4impl9Companion4mainEiPPc@Base 2.3.66
 _ZN4yarp2os4impl9Companion4pingEPKcb@Base 2.3.66
 _ZN4yarp2os4impl9Companion4pollEPKcb@Base 2.3.66
 _ZN4yarp2os4impl9Companion4readEPKcS4_b@Base 2.3.66
 _ZN4yarp2os4impl9Companion4waitEPKcbS4_@Base 2.3.66
 _ZN4yarp2os4impl9Companion5writeEPKciPPc@Base 2.3.66
 _ZN4yarp2os4impl9Companion6cmdRpcEiPPc@Base 2.3.66
 _ZN4yarp2os4impl9Companion6cmdRunEiPPc@Base 2.3.66
 _ZN4yarp2os4impl9Companion6existsEPKcRKNS0_12ContactStyleE@Base 2.3.66
 _ZN4yarp2os4impl9Companion7cmdConfEiPPc@Base 2.3.66
 _ZN4yarp2os4impl9Companion7cmdHelpEiPPc@Base 2.3.66
 _ZN4yarp2os4impl9Companion7cmdMakeEiPPc@Base 2.3.66
 _ZN4yarp2os4impl9Companion7cmdNameEiPPc@Base 2.3.66
 _ZN4yarp2os4impl9Companion7cmdPingEiPPc@Base 2.3.66
 _ZN4yarp2os4impl9Companion7cmdReadEiPPc@Base 2.3.66
 _ZN4yarp2os4impl9Companion7cmdRpc2EiPPc@Base 2.3.66
 _ZN4yarp2os4impl9Companion7cmdTimeEiPPc@Base 2.3.66
 _ZN4yarp2os4impl9Companion7cmdWaitEiPPc@Base 2.3.66
 _ZN4yarp2os4impl9Companion7connectEPKcS4_b@Base 2.3.66
 _ZN4yarp2os4impl9Companion7forwardEPKcS4_@Base 2.3.66
 _ZN4yarp2os4impl9Companion7versionEv@Base 2.3.66
 _ZN4yarp2os4impl9Companion8cmdCheckEiPPc@Base 2.3.66
 _ZN4yarp2os4impl9Companion8cmdCleanEiPPc@Base 2.3.66
 _ZN4yarp2os4impl9Companion8cmdMergeEiPPc@Base 2.3.66
 _ZN4yarp2os4impl9Companion8cmdTopicEiPPc@Base 2.3.66
 _ZN4yarp2os4impl9Companion8cmdWhereEiPPc@Base 2.3.66
 _ZN4yarp2os4impl9Companion8cmdWriteEiPPc@Base 2.3.66
 _ZN4yarp2os4impl9Companion8dispatchEPKciPPc@Base 2.3.66
 _ZN4yarp2os4impl9Companion8instanceE@Base 2.3.66
 _ZN4yarp2os4impl9Companion9applyArgsERNS0_11ContactableE@Base 2.3.66
 _ZN4yarp2os4impl9Companion9cmdDetectEiPPc@Base 2.3.66
 _ZN4yarp2os4impl9Companion9cmdExistsEiPPc@Base 2.3.66
 _ZN4yarp2os4impl9Companion9cmdPluginEiPPc@Base 2.3.66
 _ZN4yarp2os4impl9Companion9cmdSampleEiPPc@Base 2.3.66
 _ZN4yarp2os4impl9Companion9cmdServerEiPPc@Base 2.3.66
 _ZN4yarp2os4impl9Companion9subscribeEPKcS4_S4_@Base 2.3.66
 _ZN4yarp2os4impl9CompanionC1Ev@Base 2.3.66
 _ZN4yarp2os4impl9CompanionC2Ev@Base 2.3.66
 _ZN4yarp2os4impl9StoreBlob10fromStringERKNS0_11ConstStringE@Base 2.3.66
 _ZN4yarp2os4impl9StoreBlob16fromStringNestedERKNS0_11ConstStringE@Base 2.3.66
 _ZN4yarp2os4impl9StoreBlob4codeE@Base 2.3.66
 _ZN4yarp2os4impl9StoreBlob7readRawERNS0_16ConnectionReaderE@Base 2.3.66
 _ZN4yarp2os4impl9StoreBlob8writeRawERNS0_16ConnectionWriterE@Base 2.3.66
 _ZN4yarp2os4impl9StoreDict10fromStringERKNS0_11ConstStringE@Base 2.3.66
 _ZN4yarp2os4impl9StoreDict16fromStringNestedERKNS0_11ConstStringE@Base 2.3.66
 _ZN4yarp2os4impl9StoreDict4codeE@Base 2.3.66
 _ZN4yarp2os4impl9StoreDict7readRawERNS0_16ConnectionReaderE@Base 2.3.66
 _ZN4yarp2os4impl9StoreDict8writeRawERNS0_16ConnectionWriterE@Base 2.3.66
 _ZN4yarp2os4impl9StoreList10fromStringERKNS0_11ConstStringE@Base 2.3.66
 _ZN4yarp2os4impl9StoreList16fromStringNestedERKNS0_11ConstStringE@Base 2.3.66
 _ZN4yarp2os4impl9StoreList4codeE@Base 2.3.66
 _ZN4yarp2os4impl9StoreList7readRawERNS0_16ConnectionReaderE@Base 2.3.66
 _ZN4yarp2os4impl9StoreList8writeRawERNS0_16ConnectionWriterE@Base 2.3.66
 _ZN4yarp2os4statEPKc@Base 2.3.66
 _ZN4yarp2os5BytesC1EPcm@Base 2.3.66
 _ZN4yarp2os5BytesC1Ev@Base 2.3.66
 _ZN4yarp2os5BytesC2EPcm@Base 2.3.66
 _ZN4yarp2os5BytesC2Ev@Base 2.3.66
 _ZN4yarp2os5Event4waitEv@Base 2.3.66
 _ZN4yarp2os5Event5resetEv@Base 2.3.66
 _ZN4yarp2os5Event6signalEv@Base 2.3.66
 _ZN4yarp2os5EventC1Eb@Base 2.3.66
 _ZN4yarp2os5EventC2Eb@Base 2.3.66
 _ZN4yarp2os5EventD0Ev@Base 2.3.66
 _ZN4yarp2os5EventD1Ev@Base 2.3.66
 _ZN4yarp2os5EventD2Ev@Base 2.3.66
 _ZN4yarp2os5Mutex4lockEv@Base 2.3.66
 _ZN4yarp2os5Mutex6unlockEv@Base 2.3.66
 _ZN4yarp2os5Mutex7tryLockEv@Base 2.3.66
 _ZN4yarp2os5MutexC1Ev@Base 2.3.66
 _ZN4yarp2os5MutexC2Ev@Base 2.3.66
 _ZN4yarp2os5MutexD1Ev@Base 2.3.66
 _ZN4yarp2os5MutexD2Ev@Base 2.3.66
 _ZN4yarp2os5Nodes13getActiveNameEv@Base 2.3.66
 _ZN4yarp2os5Nodes13setActiveNameERKNS0_11ConstStringE@Base 2.3.66
 _ZN4yarp2os5Nodes15addExternalNodeERKNS0_11ConstStringERNS0_4NodeE@Base 2.3.66
 _ZN4yarp2os5Nodes17requireActiveNameEv@Base 2.3.66
 _ZN4yarp2os5Nodes18removeExternalNodeERKNS0_11ConstStringE@Base 2.3.66
 _ZN4yarp2os5Nodes3addERNS0_11ContactableE@Base 2.3.66
 _ZN4yarp2os5Nodes5clearEv@Base 2.3.66
 _ZN4yarp2os5Nodes5queryERKNS0_11ConstStringES4_@Base 2.3.66
 _ZN4yarp2os5Nodes6enableEb@Base 2.3.66
 _ZN4yarp2os5Nodes6getURIERKNS0_11ConstStringE@Base 2.3.66
 _ZN4yarp2os5Nodes6removeERNS0_11ContactableE@Base 2.3.66
 _ZN4yarp2os5Nodes6updateERNS0_11ContactableE@Base 2.3.66
 _ZN4yarp2os5Nodes7prepareERKNS0_11ConstStringE@Base 2.3.66
 _ZN4yarp2os5Nodes9getParentERKNS0_11ConstStringE@Base 2.3.66
 _ZN4yarp2os5Nodes9interruptEv@Base 2.3.66
 _ZN4yarp2os5NodesC1Ev@Base 2.3.66
 _ZN4yarp2os5NodesC2Ev@Base 2.3.66
 _ZN4yarp2os5NodesD0Ev@Base 2.3.66
 _ZN4yarp2os5NodesD1Ev@Base 2.3.66
 _ZN4yarp2os5NodesD2Ev@Base 2.3.66
 _ZN4yarp2os5Stamp11getMaxCountEv@Base 2.3.66
 _ZN4yarp2os5Stamp4readERNS0_16ConnectionReaderE@Base 2.3.66
 _ZN4yarp2os5Stamp5writeERNS0_16ConnectionWriterE@Base 2.3.66
 _ZN4yarp2os5Stamp6updateEd@Base 2.3.66
 _ZN4yarp2os5Stamp6updateEv@Base 2.3.66
 _ZN4yarp2os5Stamp7getTimeEv@Base 2.3.66
 _ZN4yarp2os5Stamp7isValidEv@Base 2.3.66
 _ZN4yarp2os5Stamp8getCountEv@Base 2.3.66
 _ZN4yarp2os5StampC1Eid@Base 2.3.66
 _ZN4yarp2os5StampC1Ev@Base 2.3.66
 _ZN4yarp2os5StampC2Eid@Base 2.3.66
 _ZN4yarp2os5StampC2Ev@Base 2.3.66
 _ZN4yarp2os5Value10fromStringEPKc@Base 2.3.66
 _ZN4yarp2os5Value10makeDoubleEd@Base 2.3.66
 _ZN4yarp2os5Value10makeStringERKNS0_11ConstStringE@Base 2.3.66
 _ZN4yarp2os5Value12getNullValueEv@Base 2.3.66
 _ZN4yarp2os5Value4readERNS0_16ConnectionReaderE@Base 2.3.66
 _ZN4yarp2os5Value5writeERNS0_16ConnectionWriterE@Base 2.3.66
 _ZN4yarp2os5Value7makeIntEi@Base 2.3.66
 _ZN4yarp2os5Value8makeBlobEPvi@Base 2.3.66
 _ZN4yarp2os5Value8makeListEPKc@Base 2.3.66
 _ZN4yarp2os5Value8makeListEv@Base 2.3.66
 _ZN4yarp2os5Value8setProxyEPNS0_4impl8StorableE@Base 2.3.66
 _ZN4yarp2os5Value9makeValueERKNS0_11ConstStringE@Base 2.3.66
 _ZN4yarp2os5Value9makeVocabERKNS0_11ConstStringE@Base 2.3.66
 _ZN4yarp2os5Value9makeVocabEi@Base 2.3.66
 _ZN4yarp2os5ValueC1EPvi@Base 2.3.66
 _ZN4yarp2os5ValueC1ERKNS0_11ConstStringEb@Base 2.3.66
 _ZN4yarp2os5ValueC1ERKS1_@Base 2.3.66
 _ZN4yarp2os5ValueC1Ed@Base 2.3.66
 _ZN4yarp2os5ValueC1Eib@Base 2.3.66
 _ZN4yarp2os5ValueC1Ev@Base 2.3.66
 _ZN4yarp2os5ValueC2EPvi@Base 2.3.66
 _ZN4yarp2os5ValueC2ERKNS0_11ConstStringEb@Base 2.3.66
 _ZN4yarp2os5ValueC2ERKS1_@Base 2.3.66
 _ZN4yarp2os5ValueC2Ed@Base 2.3.66
 _ZN4yarp2os5ValueC2Eib@Base 2.3.66
 _ZN4yarp2os5ValueC2Ev@Base 2.3.66
 _ZN4yarp2os5ValueD0Ev@Base 2.3.66
 _ZN4yarp2os5ValueD1Ev@Base 2.3.66
 _ZN4yarp2os5ValueD2Ev@Base 2.3.66
 _ZN4yarp2os5ValueaSERKS1_@Base 2.3.66
 _ZN4yarp2os5Vocab6decodeEi@Base 2.3.66
 _ZN4yarp2os5Vocab6encodeERKNS0_11ConstStringE@Base 2.3.66
 _ZN4yarp2os5abortEb@Base 2.3.66
 _ZN4yarp2os5mkdirEPKc@Base 2.3.66
 _ZN4yarp2os5rmdirEPKc@Base 2.3.66
 _ZN4yarp2os6Bottle10fromBinaryEPKci@Base 2.3.66
 _ZN4yarp2os6Bottle10fromStringERKNS0_11ConstStringE@Base 2.3.66
 _ZN4yarp2os6Bottle10hasChangedEv@Base 2.3.66
 _ZN4yarp2os6Bottle11setReadOnlyEb@Base 2.3.66
 _ZN4yarp2os6Bottle13getNullBottleEv@Base 2.3.66
 _ZN4yarp2os6Bottle14onCommencementEv@Base 2.3.66
 _ZN4yarp2os6Bottle17getSpecializationEv@Base 2.3.66
 _ZN4yarp2os6Bottle18describeBottleCodeEi@Base 2.3.66
 _ZN4yarp2os6Bottle3addEPKc@Base 2.3.66
 _ZN4yarp2os6Bottle3addEPNS0_5ValueE@Base 2.3.66
 _ZN4yarp2os6Bottle3addERKNS0_5ValueE@Base 2.3.66
 _ZN4yarp2os6Bottle3popEv@Base 2.3.66
 _ZN4yarp2os6Bottle4copyERKS1_ii@Base 2.3.66
 _ZN4yarp2os6Bottle4finiEv@Base 2.3.66
 _ZN4yarp2os6Bottle4readERNS0_10PortWriterEb@Base 2.3.66
 _ZN4yarp2os6Bottle4readERNS0_16ConnectionReaderE@Base 2.3.66
 _ZN4yarp2os6Bottle5clearEv@Base 2.3.66
 _ZN4yarp2os6Bottle5writeERNS0_10PortReaderEb@Base 2.3.66
 _ZN4yarp2os6Bottle5writeERNS0_16ConnectionWriterE@Base 2.3.66
 _ZN4yarp2os6Bottle6addIntEi@Base 2.3.66
 _ZN4yarp2os6Bottle6appendERKS1_@Base 2.3.66
 _ZN4yarp2os6Bottle7addDictEv@Base 2.3.66
 _ZN4yarp2os6Bottle7addListEv@Base 2.3.66
 _ZN4yarp2os6Bottle8addInt64ERKl@Base 2.3.66
 _ZN4yarp2os6Bottle8addVocabEi@Base 2.3.66
 _ZN4yarp2os6Bottle8toBinaryEPm@Base 2.3.66
 _ZN4yarp2os6Bottle8toStringEi@Base 2.3.66
 _ZN4yarp2os6Bottle9addDoubleEd@Base 2.3.66
 _ZN4yarp2os6Bottle9addStringEPKc@Base 2.3.66
 _ZN4yarp2os6Bottle9addStringERKNS0_11ConstStringE@Base 2.3.66
 _ZN4yarp2os6BottleC1ERKNS0_11ConstStringE@Base 2.3.66
 _ZN4yarp2os6BottleC1ERKS1_@Base 2.3.66
 _ZN4yarp2os6BottleC1Ev@Base 2.3.66
 _ZN4yarp2os6BottleC2ERKNS0_11ConstStringE@Base 2.3.66
 _ZN4yarp2os6BottleC2ERKS1_@Base 2.3.66
 _ZN4yarp2os6BottleC2Ev@Base 2.3.66
 _ZN4yarp2os6BottleD0Ev@Base 2.3.66
 _ZN4yarp2os6BottleD1Ev@Base 2.3.66
 _ZN4yarp2os6BottleD2Ev@Base 2.3.66
 _ZN4yarp2os6BottleaSERKS1_@Base 2.3.66
 _ZN4yarp2os6BottleeqERKS1_@Base 2.3.66
 _ZN4yarp2os6BottleneERKS1_@Base 2.3.66
 _ZN4yarp2os6Module10isStoppingEv@Base 2.3.66
 _ZN4yarp2os6Module11safeRespondERKNS0_6BottleERS2_@Base 2.3.66
 _ZN4yarp2os6Module12basicRespondERKNS0_6BottleERS2_@Base 2.3.66
 _ZN4yarp2os6Module12updateModuleEv@Base 2.3.66
 _ZN4yarp2os6Module14attachTerminalEv@Base 2.3.66
 _ZN4yarp2os6Module15interruptModuleEv@Base 2.3.66
 _ZN4yarp2os6Module15openFromCommandEiPPcb@Base 2.3.66
 _ZN4yarp2os6Module6attachERNS0_11TypedReaderINS0_6BottleEEEb@Base 2.3.66
 _ZN4yarp2os6Module6attachERNS0_4PortE@Base 2.3.66
 _ZN4yarp2os6Module7getNameEPKc@Base 2.3.66
 _ZN4yarp2os6Module7respondERKNS0_6BottleERS2_@Base 2.3.66
 _ZN4yarp2os6Module7setNameEPKc@Base 2.3.66
 _ZN4yarp2os6Module9getPeriodEv@Base 2.3.66
 _ZN4yarp2os6Module9runModuleEiPPcb@Base 2.3.66
 _ZN4yarp2os6Module9runModuleEv@Base 2.3.66
 _ZN4yarp2os6ModuleC1Ev@Base 2.3.66
 _ZN4yarp2os6ModuleC2Ev@Base 2.3.66
 _ZN4yarp2os6ModuleD0Ev@Base 2.3.66
 _ZN4yarp2os6ModuleD1Ev@Base 2.3.66
 _ZN4yarp2os6ModuleD2Ev@Base 2.3.66
 _ZN4yarp2os6Random4seedEi@Base 2.3.66
 _ZN4yarp2os6Random6normalEdd@Base 2.3.66
 _ZN4yarp2os6Random6normalEv@Base 2.3.66
 _ZN4yarp2os6Random7uniformEii@Base 2.3.66
 _ZN4yarp2os6Random7uniformEv@Base 2.3.66
 _ZN4yarp2os6ThingsC1Ev@Base 2.3.66
 _ZN4yarp2os6ThingsC2Ev@Base 2.3.66
 _ZN4yarp2os6ThingsD0Ev@Base 2.3.66
 _ZN4yarp2os6ThingsD1Ev@Base 2.3.66
 _ZN4yarp2os6ThingsD2Ev@Base 2.3.66
 _ZN4yarp2os6Thread10afterStartEb@Base 2.3.66
 _ZN4yarp2os6Thread10isStoppingEv@Base 2.3.66
 _ZN4yarp2os6Thread10setOptionsEi@Base 2.3.66
 _ZN4yarp2os6Thread11beforeStartEv@Base 2.3.66
 _ZN4yarp2os6Thread11getPriorityEv@Base 2.3.66
 _ZN4yarp2os6Thread11setPriorityEii@Base 2.3.66
 _ZN4yarp2os6Thread14getKeyOfCallerEv@Base 2.3.66
 _ZN4yarp2os6Thread19setDefaultStackSizeEi@Base 2.3.66
 _ZN4yarp2os6Thread4joinEd@Base 2.3.66
 _ZN4yarp2os6Thread4stopEv@Base 2.3.66
 _ZN4yarp2os6Thread5startEv@Base 2.3.66
 _ZN4yarp2os6Thread6getKeyEv@Base 2.3.66
 _ZN4yarp2os6Thread6onStopEv@Base 2.3.66
 _ZN4yarp2os6Thread8getCountEv@Base 2.3.66
 _ZN4yarp2os6Thread9getPolicyEv@Base 2.3.66
 _ZN4yarp2os6Thread9isRunningEv@Base 2.3.66
 _ZN4yarp2os6ThreadC1Ev@Base 2.3.66
 _ZN4yarp2os6ThreadC2Ev@Base 2.3.66
 _ZN4yarp2os6ThreadD0Ev@Base 2.3.66
 _ZN4yarp2os6ThreadD1Ev@Base 2.3.66
 _ZN4yarp2os6ThreadD2Ev@Base 2.3.66
 _ZN4yarp2os6getenvEPKc@Base 2.3.66
 _ZN4yarp2os6getpidEv@Base 2.3.66
 _ZN4yarp2os6renameEPKcS2_@Base 2.3.66
 _ZN4yarp2os6signalEiPFviE@Base 2.3.66
 _ZN4yarp2os7Carrier5replyERNS0_15ConnectionStateERNS0_11SizedWriterE@Base 2.3.66
 _ZN4yarp2os7Contact10fromStringERKNS0_11ConstStringE@Base 2.3.66
 _ZN4yarp2os7Contact10setTimeoutEf@Base 2.3.66
 _ZN4yarp2os7Contact15convertHostToIpEPKc@Base 2.3.66
 _ZN4yarp2os7Contact5emptyEv@Base 2.3.66
 _ZN4yarp2os7Contact6byNameERKNS0_11ConstStringE@Base 2.3.66
 _ZN4yarp2os7Contact7invalidEv@Base 2.3.66
 _ZN4yarp2os7Contact7setHostERKNS0_11ConstStringE@Base 2.3.66
 _ZN4yarp2os7Contact7setPortEi@Base 2.3.66
 _ZN4yarp2os7Contact8byConfigERNS0_10SearchableE@Base 2.3.66
 _ZN4yarp2os7Contact8bySocketERKNS0_11ConstStringES4_i@Base 2.3.66
 _ZN4yarp2os7Contact9byCarrierERKNS0_11ConstStringE@Base 2.3.66
 _ZN4yarp2os7Contact9setNestedERKNS0_13NestedContactE@Base 2.3.66
 _ZN4yarp2os7ContactC1ERKNS0_11ConstStringEi@Base 2.3.66
 _ZN4yarp2os7ContactC1ERKS1_@Base 2.3.66
 _ZN4yarp2os7ContactC1Ev@Base 2.3.66
 _ZN4yarp2os7ContactC2ERKNS0_11ConstStringEi@Base 2.3.66
 _ZN4yarp2os7ContactC2ERKS1_@Base 2.3.66
 _ZN4yarp2os7ContactC2Ev@Base 2.3.66
 _ZN4yarp2os7ContactD0Ev@Base 2.3.66
 _ZN4yarp2os7ContactD1Ev@Base 2.3.66
 _ZN4yarp2os7ContactD2Ev@Base 2.3.66
 _ZN4yarp2os7ContactaSERKS1_@Base 2.3.66
 _ZN4yarp2os7IConfig4openERNS0_10SearchableE@Base 2.3.66
 _ZN4yarp2os7IConfig5closeEv@Base 2.3.66
 _ZN4yarp2os7IConfig9configureERNS0_10SearchableE@Base 2.3.66
 _ZN4yarp2os7IConfigD0Ev@Base 2.3.66
 _ZN4yarp2os7IConfigD1Ev@Base 2.3.66
 _ZN4yarp2os7IConfigD2Ev@Base 2.3.66
 _ZN4yarp2os7NetType11toHexStringEi@Base 2.3.66
 _ZN4yarp2os7NetType5toIntERKNS0_11ConstStringE@Base 2.3.66
 _ZN4yarp2os7NetType6getCrcEPcm@Base 2.3.66
 _ZN4yarp2os7NetType6netIntERKNS0_5BytesE@Base 2.3.66
 _ZN4yarp2os7NetType6netIntEiRKNS0_5BytesE@Base 2.3.66
 _ZN4yarp2os7NetType8toStringEi@Base 2.3.66
 _ZN4yarp2os7NetType8toStringEj@Base 2.3.66
 _ZN4yarp2os7NetType8toStringEl@Base 2.3.66
 _ZN4yarp2os7StampedD0Ev@Base 2.3.66
 _ZN4yarp2os7StampedD1Ev@Base 2.3.66
 _ZN4yarp2os7StampedD2Ev@Base 2.3.66
 _ZN4yarp2os7mkdir_pEPKci@Base 2.3.66
 _ZN4yarp2os8PortInfoC1Ev@Base 2.3.66
 _ZN4yarp2os8PortInfoC2Ev@Base 2.3.66
 _ZN4yarp2os8Portable12copyPortableERNS0_10PortWriterERNS0_10PortReaderE@Base 2.3.66
 _ZN4yarp2os8Property10fromConfigEPKcRNS0_10SearchableEb@Base 2.3.66
 _ZN4yarp2os8Property10fromConfigEPKcb@Base 2.3.66
 _ZN4yarp2os8Property10fromStringERKNS0_11ConstStringEb@Base 2.3.66
 _ZN4yarp2os8Property11fromCommandEiPPKcbb@Base 2.3.66
 _ZN4yarp2os8Property11fromCommandEiPPcbb@Base 2.3.66
 _ZN4yarp2os8Property13fromArgumentsEPKcb@Base 2.3.66
 _ZN4yarp2os8Property13fromConfigDirERKNS0_11ConstStringES4_b@Base 2.3.66
 _ZN4yarp2os8Property14fromConfigFileERKNS0_11ConstStringERNS0_10SearchableEb@Base 2.3.66
 _ZN4yarp2os8Property14fromConfigFileERKNS0_11ConstStringEb@Base 2.3.66
 _ZN4yarp2os8Property3putERKNS0_11ConstStringEPNS0_5ValueE@Base 2.3.66
 _ZN4yarp2os8Property3putERKNS0_11ConstStringERKNS0_5ValueE@Base 2.3.66
 _ZN4yarp2os8Property3putERKNS0_11ConstStringES4_@Base 2.3.66
 _ZN4yarp2os8Property3putERKNS0_11ConstStringEd@Base 2.3.66
 _ZN4yarp2os8Property3putERKNS0_11ConstStringEi@Base 2.3.66
 _ZN4yarp2os8Property4readERNS0_16ConnectionReaderE@Base 2.3.66
 _ZN4yarp2os8Property5clearEv@Base 2.3.66
 _ZN4yarp2os8Property5unputERKNS0_11ConstStringE@Base 2.3.66
 _ZN4yarp2os8Property5writeERNS0_16ConnectionWriterE@Base 2.3.66
 _ZN4yarp2os8Property6summonEv@Base 2.3.66
 _ZN4yarp2os8Property8addGroupERKNS0_11ConstStringE@Base 2.3.66
 _ZN4yarp2os8Property9fromQueryEPKcb@Base 2.3.66
 _ZN4yarp2os8PropertyC1EPKc@Base 2.3.66
 _ZN4yarp2os8PropertyC1ERKS1_@Base 2.3.66
 _ZN4yarp2os8PropertyC1Ei@Base 2.3.66
 _ZN4yarp2os8PropertyC2EPKc@Base 2.3.66
 _ZN4yarp2os8PropertyC2ERKS1_@Base 2.3.66
 _ZN4yarp2os8PropertyC2Ei@Base 2.3.66
 _ZN4yarp2os8PropertyD0Ev@Base 2.3.66
 _ZN4yarp2os8PropertyD1Ev@Base 2.3.66
 _ZN4yarp2os8PropertyD2Ev@Base 2.3.66
 _ZN4yarp2os8PropertyaSERKS1_@Base 2.3.66
 _ZN4yarp2os8QosStyle14getDSCPByVocabEi@Base 2.3.66
 _ZN4yarp2os8QosStyle15getLevelByVocabEi@Base 2.3.66
 _ZN4yarp2os8QosStyle17setPacketPriorityERKNS0_11ConstStringE@Base 2.3.66
 _ZN4yarp2os8QosStyle23setPacketPriorityByDscpENS1_18PacketPriorityDSCPE@Base 2.3.66
 _ZN4yarp2os8QosStyle24setPacketPriorityByLevelENS1_19PacketPriorityLevelE@Base 2.3.66
 _ZN4yarp2os8QosStyleC1Ev@Base 2.3.66
 _ZN4yarp2os8QosStyleC2Ev@Base 2.3.66
 _ZN4yarp2os8RFModule10isStoppingEv@Base 2.3.66
 _ZN4yarp2os8RFModule10stopModuleEb@Base 2.3.66
 _ZN4yarp2os8RFModule11safeRespondERKNS0_6BottleERS2_@Base 2.3.66
 _ZN4yarp2os8RFModule12basicRespondERKNS0_6BottleERS2_@Base 2.3.66
 _ZN4yarp2os8RFModule14attachTerminalEv@Base 2.3.66
 _ZN4yarp2os8RFModule14detachTerminalEv@Base 2.3.66
 _ZN4yarp2os8RFModule15interruptModuleEv@Base 2.3.66
 _ZN4yarp2os8RFModule5closeEv@Base 2.3.66
 _ZN4yarp2os8RFModule6attachERNS0_4PortE@Base 2.3.66
 _ZN4yarp2os8RFModule6attachERNS0_9RpcServerE@Base 2.3.66
 _ZN4yarp2os8RFModule7getNameERKNS0_11ConstStringE@Base 2.3.66
 _ZN4yarp2os8RFModule7respondERKNS0_6BottleERS2_@Base 2.3.66
 _ZN4yarp2os8RFModule7setNameEPKc@Base 2.3.66
 _ZN4yarp2os8RFModule9configureERNS0_14ResourceFinderE@Base 2.3.66
 _ZN4yarp2os8RFModule9getPeriodEv@Base 2.3.66
 _ZN4yarp2os8RFModule9runModuleERNS0_14ResourceFinderE@Base 2.3.66
 _ZN4yarp2os8RFModule9runModuleEv@Base 2.3.66
 _ZN4yarp2os8RFModuleC1Ev@Base 2.3.66
 _ZN4yarp2os8RFModuleC2Ev@Base 2.3.66
 _ZN4yarp2os8RFModuleD0Ev@Base 2.3.66
 _ZN4yarp2os8RFModuleD1Ev@Base 2.3.66
 _ZN4yarp2os8RFModuleD2Ev@Base 2.3.66
 _ZN4yarp2os8Runnable10afterStartEb@Base 2.3.66
 _ZN4yarp2os8Runnable10threadInitEv@Base 2.3.66
 _ZN4yarp2os8Runnable11beforeStartEv@Base 2.3.66
 _ZN4yarp2os8Runnable13threadReleaseEv@Base 2.3.66
 _ZN4yarp2os8Runnable3runEv@Base 2.3.66
 _ZN4yarp2os8Runnable5closeEv@Base 2.3.66
 _ZN4yarp2os8RunnableD0Ev@Base 2.3.66
 _ZN4yarp2os8RunnableD1Ev@Base 2.3.66
 _ZN4yarp2os8RunnableD2Ev@Base 2.3.66
 _ZN4yarp2os8Terminee3runEv@Base 2.3.66
 _ZN4yarp2os8Terminee6onStopEv@Base 2.3.66
 _ZN4yarp2os8TermineeC1EPKc@Base 2.3.66
 _ZN4yarp2os8TermineeC2EPKc@Base 2.3.66
 _ZN4yarp2os8TermineeD0Ev@Base 2.3.66
 _ZN4yarp2os8TermineeD1Ev@Base 2.3.66
 _ZN4yarp2os8TermineeD2Ev@Base 2.3.66
 _ZN4yarp2os9NameSpace12checkNetworkEd@Base 2.3.66
 _ZN4yarp2os9NameSpace12checkNetworkEv@Base 2.3.66
 _ZN4yarp2os9NameSpaceD0Ev@Base 2.3.66
 _ZN4yarp2os9NameSpaceD1Ev@Base 2.3.66
 _ZN4yarp2os9NameSpaceD2Ev@Base 2.3.66
 _ZN4yarp2os9NameStoreD0Ev@Base 2.3.66
 _ZN4yarp2os9NameStoreD1Ev@Base 2.3.66
 _ZN4yarp2os9NameStoreD2Ev@Base 2.3.66
 _ZN4yarp2os9RpcClient10setRpcModeEb@Base 2.3.66
 _ZN4yarp2os9RpcClient12replyAndDropERNS0_10PortWriterE@Base 2.3.66
 _ZN4yarp2os9RpcClient12setInputModeEb@Base 2.3.66
 _ZN4yarp2os9RpcClient13setOutputModeEb@Base 2.3.66
 _ZN4yarp2os9RpcClient4readERNS0_10PortReaderEb@Base 2.3.66
 _ZN4yarp2os9RpcClient5replyERNS0_10PortWriterE@Base 2.3.66
 _ZN4yarp2os9RpcClientC1Ev@Base 2.3.66
 _ZN4yarp2os9RpcClientC2Ev@Base 2.3.66
 _ZN4yarp2os9RpcClientD0Ev@Base 2.3.66
 _ZN4yarp2os9RpcClientD1Ev@Base 2.3.66
 _ZN4yarp2os9RpcClientD2Ev@Base 2.3.66
 _ZN4yarp2os9RpcServer10setRpcModeEb@Base 2.3.66
 _ZN4yarp2os9RpcServer12setInputModeEb@Base 2.3.66
 _ZN4yarp2os9RpcServer13setOutputModeEb@Base 2.3.66
 _ZN4yarp2os9RpcServer4readERNS0_10PortReaderEb@Base 2.3.66
 _ZN4yarp2os9RpcServerC1Ev@Base 2.3.66
 _ZN4yarp2os9RpcServerC2Ev@Base 2.3.66
 _ZN4yarp2os9RpcServerD0Ev@Base 2.3.66
 _ZN4yarp2os9RpcServerD1Ev@Base 2.3.66
 _ZN4yarp2os9RpcServerD2Ev@Base 2.3.66
 _ZN4yarp2os9Semaphore15waitWithTimeoutEd@Base 2.3.66
 _ZN4yarp2os9Semaphore4postEv@Base 2.3.66
 _ZN4yarp2os9Semaphore4waitEv@Base 2.3.66
 _ZN4yarp2os9Semaphore5checkEv@Base 2.3.66
 _ZN4yarp2os9SemaphoreC1Ej@Base 2.3.66
 _ZN4yarp2os9SemaphoreC2Ej@Base 2.3.66
 _ZN4yarp2os9SemaphoreD0Ev@Base 2.3.66
 _ZN4yarp2os9SemaphoreD1Ev@Base 2.3.66
 _ZN4yarp2os9SemaphoreD2Ev@Base 2.3.66
 _ZN6ACE_OS8hostnameEPcm@Base 2.3.66
 _ZNK4yarp2os10Searchable10getMonitorEv@Base 2.3.66
 _ZNK4yarp2os10Searchable15reportToMonitorERKNS0_12SearchReportE@Base 2.3.66
 _ZNK4yarp2os10Searchable17getMonitorContextEv@Base 2.3.66
 _ZNK4yarp2os10Searchable5checkERKNS0_11ConstStringERKNS0_5ValueES4_@Base 2.3.66
 _ZNK4yarp2os10Searchable5checkERKNS0_11ConstStringERPNS0_5ValueES4_@Base 2.3.66
 _ZNK4yarp2os10Searchable5checkERKNS0_11ConstStringES4_@Base 2.3.66
 _ZNK4yarp2os10Searchable6isNullEv@Base 2.3.66
 _ZNK4yarp2os10Searchable9findGroupERKNS0_11ConstStringES4_@Base 2.3.66
 _ZNK4yarp2os11ConstString4hashEv@Base 2.3.66
 _ZNK4yarp2os11Contactable7getNameEv@Base 2.3.66
 _ZNK4yarp2os12ManagedBytes3getEv@Base 2.3.66
 _ZNK4yarp2os12ManagedBytes4usedEv@Base 2.3.66
 _ZNK4yarp2os12ManagedBytes6lengthEv@Base 2.3.66
 _ZNK4yarp2os12NetworkClock7isValidEv@Base 2.3.66
 _ZNK4yarp2os12RosNameSpace17usesCentralServerEv@Base 2.3.66
 _ZNK4yarp2os12RosNameSpace20getNameServerContactEv@Base 2.3.66
 _ZNK4yarp2os12RosNameSpace26serverAllocatesPortNumbersEv@Base 2.3.66
 _ZNK4yarp2os12RosNameSpace28connectionHasNameOfEndpointsEv@Base 2.3.66
 _ZNK4yarp2os12RosNameSpace9localOnlyEv@Base 2.3.66
 _ZNK4yarp2os13SharedLibrary7isValidEv@Base 2.3.66
 _ZNK4yarp2os14MultiNameSpace17usesCentralServerEv@Base 2.3.66
 _ZNK4yarp2os14MultiNameSpace20getNameServerContactEv@Base 2.3.66
 _ZNK4yarp2os14MultiNameSpace26serverAllocatesPortNumbersEv@Base 2.3.66
 _ZNK4yarp2os14MultiNameSpace28connectionHasNameOfEndpointsEv@Base 2.3.66
 _ZNK4yarp2os14MultiNameSpace9localOnlyEv@Base 2.3.66
 _ZNK4yarp2os14ResourceFinder4findERKNS0_11ConstStringE@Base 2.3.66
 _ZNK4yarp2os14ResourceFinder5checkERKNS0_11ConstStringE@Base 2.3.66
 _ZNK4yarp2os14ResourceFinder6isNullEv@Base 2.3.66
 _ZNK4yarp2os14ResourceFinder8toStringEv@Base 2.3.66
 _ZNK4yarp2os14ResourceFinder9findGroupERKNS0_11ConstStringE@Base 2.3.66
 _ZNK4yarp2os16ConnectionWriter6isNullEv@Base 2.3.66
 _ZNK4yarp2os17RateThreadWrapper13getAttachmentEv@Base 2.3.66
 _ZNK4yarp2os18YarpPluginSettings12reportStatusERNS0_20SharedLibraryFactoryE@Base 2.3.66
 _ZNK4yarp2os18YarpPluginSettings13reportFailureEv@Base 2.3.66
 _ZNK4yarp2os20NullConnectionWriter6isNullEv@Base 2.3.66
 _ZNK4yarp2os20SharedLibraryFactory12getClassNameEv@Base 2.3.66
 _ZNK4yarp2os20SharedLibraryFactory16getBaseClassNameEv@Base 2.3.66
 _ZNK4yarp2os20SharedLibraryFactory17getReferenceCountEv@Base 2.3.66
 _ZNK4yarp2os20SharedLibraryFactory6getApiEv@Base 2.3.66
 _ZNK4yarp2os20SharedLibraryFactory7getNameEv@Base 2.3.66
 _ZNK4yarp2os20SharedLibraryFactory7isValidEv@Base 2.3.66
 _ZNK4yarp2os20SharedLibraryFactory8getErrorEv@Base 2.3.66
 _ZNK4yarp2os20SharedLibraryFactory9getStatusEv@Base 2.3.66
 _ZNK4yarp2os3Log4infoEPKcz@Base 2.3.66
 _ZNK4yarp2os3Log4infoEv@Base 2.3.66
 _ZNK4yarp2os3Log5debugEPKcz@Base 2.3.66
 _ZNK4yarp2os3Log5debugEv@Base 2.3.66
 _ZNK4yarp2os3Log5errorEPKcz@Base 2.3.66
 _ZNK4yarp2os3Log5errorEv@Base 2.3.66
 _ZNK4yarp2os3Log5fatalEPKcz@Base 2.3.66
 _ZNK4yarp2os3Log5fatalEv@Base 2.3.66
 _ZNK4yarp2os3Log5traceEPKcz@Base 2.3.66
 _ZNK4yarp2os3Log5traceEv@Base 2.3.66
 _ZNK4yarp2os3Log7warningEPKcz@Base 2.3.66
 _ZNK4yarp2os3Log7warningEv@Base 2.3.66
 _ZNK4yarp2os3idl10WireReader10getIsVocabEv@Base 2.3.66
 _ZNK4yarp2os3idl10WireReader7getModeEv@Base 2.3.66
 _ZNK4yarp2os3idl10WireReader9getStringEv@Base 2.3.66
 _ZNK4yarp2os3idl10WireWriter6isNullEv@Base 2.3.66
 _ZNK4yarp2os3idl9WireState7isValidEv@Base 2.3.66
 _ZNK4yarp2os4Name8isRootedEv@Base 2.3.66
 _ZNK4yarp2os4Name9toAddressEv@Base 2.3.66
 _ZNK4yarp2os4Port18needImplementationEv@Base 2.3.66
 _ZNK4yarp2os4Port5whereEv@Base 2.3.66
 _ZNK4yarp2os4Port5writeERNS0_10PortWriterEPS2_@Base 2.3.66
 _ZNK4yarp2os4Port5writeERNS0_10PortWriterERNS0_10PortReaderEPS2_@Base 2.3.66
 _ZNK4yarp2os4Port6isOpenEv@Base 2.3.66
 _ZNK4yarp2os4Type14readPropertiesEv@Base 2.3.66
 _ZNK4yarp2os4impl10BottleImpl12findGroupBitERKNS0_11ConstStringE@Base 2.3.66
 _ZNK4yarp2os4impl10BottleImpl3getEi@Base 2.3.66
 _ZNK4yarp2os4impl10BottleImpl4sizeEv@Base 2.3.66
 _ZNK4yarp2os4impl10BottleImpl7findBitERKNS0_11ConstStringE@Base 2.3.66
 _ZNK4yarp2os4impl10StoreInt6412toStringFlexEv@Base 2.3.66
 _ZNK4yarp2os4impl10StoreVocab12toStringFlexEv@Base 2.3.66
 _ZNK4yarp2os4impl10StoreVocab14toStringNestedEv@Base 2.3.66
 _ZNK4yarp2os4impl11StoreDouble12toStringFlexEv@Base 2.3.66
 _ZNK4yarp2os4impl11StoreString12toStringFlexEv@Base 2.3.66
 _ZNK4yarp2os4impl11StoreString14toStringNestedEv@Base 2.3.66
 _ZNK4yarp2os4impl20PortReaderBufferBase7getNameEv@Base 2.3.66
 _ZNK4yarp2os4impl8Storable4findERKNS0_11ConstStringE@Base 2.3.66
 _ZNK4yarp2os4impl8Storable5checkERKNS0_11ConstStringE@Base 2.3.66
 _ZNK4yarp2os4impl8Storable9findGroupERKNS0_11ConstStringE@Base 2.3.66
 _ZNK4yarp2os4impl8StorableeqERKNS0_5ValueE@Base 2.3.66
 _ZNK4yarp2os4impl8StoreInt12toStringFlexEv@Base 2.3.66
 _ZNK4yarp2os4impl9StoreBlob12toStringFlexEv@Base 2.3.66
 _ZNK4yarp2os4impl9StoreBlob14toStringNestedEv@Base 2.3.66
 _ZNK4yarp2os4impl9StoreDict12toStringFlexEv@Base 2.3.66
 _ZNK4yarp2os4impl9StoreDict14toStringNestedEv@Base 2.3.66
 _ZNK4yarp2os4impl9StoreList12toStringFlexEv@Base 2.3.66
 _ZNK4yarp2os4impl9StoreList14toStringNestedEv@Base 2.3.66
 _ZNK4yarp2os4impl9StoreList7subCodeEv@Base 2.3.66
 _ZNK4yarp2os5Bytes3getEv@Base 2.3.66
 _ZNK4yarp2os5Bytes6lengthEv@Base 2.3.66
 _ZNK4yarp2os5Value12asBlobLengthEv@Base 2.3.66
 _ZNK4yarp2os5Value12asSearchableEv@Base 2.3.66
 _ZNK4yarp2os5Value2okEv@Base 2.3.66
 _ZNK4yarp2os5Value4findERKNS0_11ConstStringE@Base 2.3.66
 _ZNK4yarp2os5Value5asIntEv@Base 2.3.66
 _ZNK4yarp2os5Value5checkERKNS0_11ConstStringE@Base 2.3.66
 _ZNK4yarp2os5Value5cloneEv@Base 2.3.66
 _ZNK4yarp2os5Value5isIntEv@Base 2.3.66
 _ZNK4yarp2os5Value6asBlobEv@Base 2.3.66
 _ZNK4yarp2os5Value6asBoolEv@Base 2.3.66
 _ZNK4yarp2os5Value6asDictEv@Base 2.3.66
 _ZNK4yarp2os5Value6asListEv@Base 2.3.66
 _ZNK4yarp2os5Value6createEv@Base 2.3.66
 _ZNK4yarp2os5Value6isBlobEv@Base 2.3.66
 _ZNK4yarp2os5Value6isBoolEv@Base 2.3.66
 _ZNK4yarp2os5Value6isDictEv@Base 2.3.66
 _ZNK4yarp2os5Value6isLeafEv@Base 2.3.66
 _ZNK4yarp2os5Value6isListEv@Base 2.3.66
 _ZNK4yarp2os5Value6isNullEv@Base 2.3.66
 _ZNK4yarp2os5Value7asInt64Ev@Base 2.3.66
 _ZNK4yarp2os5Value7asVocabEv@Base 2.3.66
 _ZNK4yarp2os5Value7getCodeEv@Base 2.3.66
 _ZNK4yarp2os5Value7isInt64Ev@Base 2.3.66
 _ZNK4yarp2os5Value7isVocabEv@Base 2.3.66
 _ZNK4yarp2os5Value8asDoubleEv@Base 2.3.66
 _ZNK4yarp2os5Value8asStringEv@Base 2.3.66
 _ZNK4yarp2os5Value8isDoubleEv@Base 2.3.66
 _ZNK4yarp2os5Value8isStringEv@Base 2.3.66
 _ZNK4yarp2os5Value8toStringEv@Base 2.3.66
 _ZNK4yarp2os5Value9findGroupERKNS0_11ConstStringE@Base 2.3.66
 _ZNK4yarp2os5ValueeqERKS1_@Base 2.3.66
 _ZNK4yarp2os5ValueneERKS1_@Base 2.3.66
 _ZNK4yarp2os6Bottle3getEi@Base 2.3.66
 _ZNK4yarp2os6Bottle4findERKNS0_11ConstStringE@Base 2.3.66
 _ZNK4yarp2os6Bottle4sizeEv@Base 2.3.66
 _ZNK4yarp2os6Bottle4tailEv@Base 2.3.66
 _ZNK4yarp2os6Bottle5checkERKNS0_11ConstStringE@Base 2.3.66
 _ZNK4yarp2os6Bottle6isNullEv@Base 2.3.66
 _ZNK4yarp2os6Bottle8toStringEv@Base 2.3.66
 _ZNK4yarp2os6Bottle9findGroupERKNS0_11ConstStringE@Base 2.3.66
 _ZNK4yarp2os7Contact10addCarrierERKNS0_11ConstStringE@Base 2.3.66
 _ZNK4yarp2os7Contact10getCarrierEv@Base 2.3.66
 _ZNK4yarp2os7Contact10getRegNameEv@Base 2.3.66
 _ZNK4yarp2os7Contact10getTimeoutEv@Base 2.3.66
 _ZNK4yarp2os7Contact10hasTimeoutEv@Base 2.3.66
 _ZNK4yarp2os7Contact5toURIEv@Base 2.3.66
 _ZNK4yarp2os7Contact7addHostERKNS0_11ConstStringE@Base 2.3.66
 _ZNK4yarp2os7Contact7addNameERKNS0_11ConstStringE@Base 2.3.66
 _ZNK4yarp2os7Contact7addPortEi@Base 2.3.66
 _ZNK4yarp2os7Contact7getHostEv@Base 2.3.66
 _ZNK4yarp2os7Contact7getNameEv@Base 2.3.66
 _ZNK4yarp2os7Contact7getPortEv@Base 2.3.66
 _ZNK4yarp2os7Contact7isValidEv@Base 2.3.66
 _ZNK4yarp2os7Contact8toStringEv@Base 2.3.66
 _ZNK4yarp2os7Contact9addNestedERKNS0_13NestedContactE@Base 2.3.66
 _ZNK4yarp2os7Contact9addSocketERKNS0_11ConstStringES4_i@Base 2.3.66
 _ZNK4yarp2os7Contact9getNestedEv@Base 2.3.66
 _ZNK4yarp2os8Property4findERKNS0_11ConstStringE@Base 2.3.66
 _ZNK4yarp2os8Property5checkERKNS0_11ConstStringE@Base 2.3.66
 _ZNK4yarp2os8Property5checkEv@Base 2.3.66
 _ZNK4yarp2os8Property8toStringEv@Base 2.3.66
 _ZNK4yarp2os8Property9findGroupERKNS0_11ConstStringE@Base 2.3.66
 _ZNK4yarp2os8QosStyle23getPacketPriorityAsDSCPEv@Base 2.3.66
 _ZNK4yarp2os8QosStyle24getPacketPriorityAsLevelEv@Base 2.3.66
 _ZNK4yarp2os9NameSpace17getNameServerNameEv@Base 2.3.66
 _ZNK4yarp2os9RpcServer5writeERNS0_10PortWriterEPS2_@Base 2.3.66
 _ZNK4yarp2os9RpcServer5writeERNS0_10PortWriterERNS0_10PortReaderEPS2_@Base 2.3.66
 _ZNSt5dequeIN4yarp2os6BottleESaIS2_EE16_M_push_back_auxIJS2_EEEvDpOT_@Base 2.3.66
 _ZNSt5dequeIN4yarp2os6BottleESaIS2_EE19_M_destroy_data_auxESt15_Deque_iteratorIS2_RS2_PS2_ES8_@Base 2.3.66
 _ZNSt5dequeIN4yarp2os6BottleESaIS2_EED1Ev@Base 2.3.66
 _ZNSt5dequeIN4yarp2os6BottleESaIS2_EED2Ev@Base 2.3.66
 _ZNSt6vectorIN4yarp2os11ConstStringESaIS2_EE12emplace_backIJS2_EEEvDpOT_@Base 2.3.66
 _ZNSt6vectorIN4yarp2os11ConstStringESaIS2_EE19_M_emplace_back_auxIJS2_EEEvDpOT_@Base 2.3.66
 _ZNSt6vectorIN4yarp2os11ConstStringESaIS2_EED1Ev@Base 2.3.66
 _ZNSt6vectorIN4yarp2os11ConstStringESaIS2_EED2Ev@Base 2.3.66
 _ZNSt8_Rb_treeIN4yarp2os11ConstStringESt4pairIKS2_PNS1_4NodeEESt10_Select1stIS7_ESt4lessIS2_ESaIS7_EE11equal_rangeERS4_@Base 2.3.66
 _ZNSt8_Rb_treeIN4yarp2os11ConstStringESt4pairIKS2_PNS1_4NodeEESt10_Select1stIS7_ESt4lessIS2_ESaIS7_EE14_M_insert_nodeEPSt18_Rb_tree_node_baseSF_PSt13_Rb_tree_nodeIS7_E@Base 2.3.66
 _ZNSt8_Rb_treeIN4yarp2os11ConstStringESt4pairIKS2_PNS1_4NodeEESt10_Select1stIS7_ESt4lessIS2_ESaIS7_EE22_M_emplace_hint_uniqueIJRKSt21piecewise_construct_tSt5tupleIJOS2_EESI_IJEEEEESt17_Rb_tree_iteratorIS7_ESt23_Rb_tree_const_iteratorIS7_EDpOT_@Base 2.3.66
 _ZNSt8_Rb_treeIN4yarp2os11ConstStringESt4pairIKS2_PNS1_4NodeEESt10_Select1stIS7_ESt4lessIS2_ESaIS7_EE22_M_emplace_hint_uniqueIJRKSt21piecewise_construct_tSt5tupleIJRS4_EESI_IJEEEEESt17_Rb_tree_iteratorIS7_ESt23_Rb_tree_const_iteratorIS7_EDpOT_@Base 2.3.66
 _ZNSt8_Rb_treeIN4yarp2os11ConstStringESt4pairIKS2_PNS1_4NodeEESt10_Select1stIS7_ESt4lessIS2_ESaIS7_EE24_M_get_insert_unique_posERS4_@Base 2.3.66
 _ZNSt8_Rb_treeIN4yarp2os11ConstStringESt4pairIKS2_PNS1_4NodeEESt10_Select1stIS7_ESt4lessIS2_ESaIS7_EE29_M_get_insert_hint_unique_posESt23_Rb_tree_const_iteratorIS7_ERS4_@Base 2.3.66
 _ZNSt8_Rb_treeIN4yarp2os11ConstStringESt4pairIKS2_PNS1_4NodeEESt10_Select1stIS7_ESt4lessIS2_ESaIS7_EE4findERS4_@Base 2.3.66
 _ZNSt8_Rb_treeIN4yarp2os11ConstStringESt4pairIKS2_PNS1_4NodeEESt10_Select1stIS7_ESt4lessIS2_ESaIS7_EE7_M_copyINSD_11_Alloc_nodeEEEPSt13_Rb_tree_nodeIS7_EPKSH_PSt18_Rb_tree_node_baseRT_@Base 2.3.66
 _ZNSt8_Rb_treeIN4yarp2os11ConstStringESt4pairIKS2_PNS1_4NodeEESt10_Select1stIS7_ESt4lessIS2_ESaIS7_EE8_M_eraseEPSt13_Rb_tree_nodeIS7_E@Base 2.3.66
 _ZNSt8_Rb_treeIN4yarp2os11ConstStringESt4pairIKS2_iESt10_Select1stIS5_ESt4lessIS2_ESaIS5_EE11equal_rangeERS4_@Base 2.3.66
 _ZNSt8_Rb_treeIN4yarp2os11ConstStringESt4pairIKS2_iESt10_Select1stIS5_ESt4lessIS2_ESaIS5_EE22_M_emplace_hint_uniqueIJRKSt21piecewise_construct_tSt5tupleIJRS4_EESG_IJEEEEESt17_Rb_tree_iteratorIS5_ESt23_Rb_tree_const_iteratorIS5_EDpOT_@Base 2.3.66
 _ZNSt8_Rb_treeIN4yarp2os11ConstStringESt4pairIKS2_iESt10_Select1stIS5_ESt4lessIS2_ESaIS5_EE24_M_get_insert_unique_posERS4_@Base 2.3.66
 _ZNSt8_Rb_treeIN4yarp2os11ConstStringESt4pairIKS2_iESt10_Select1stIS5_ESt4lessIS2_ESaIS5_EE29_M_get_insert_hint_unique_posESt23_Rb_tree_const_iteratorIS5_ERS4_@Base 2.3.66
 _ZNSt8_Rb_treeIN4yarp2os11ConstStringESt4pairIKS2_iESt10_Select1stIS5_ESt4lessIS2_ESaIS5_EE7_M_copyINSB_11_Alloc_nodeEEEPSt13_Rb_tree_nodeIS5_EPKSF_PSt18_Rb_tree_node_baseRT_@Base 2.3.66
 _ZNSt8_Rb_treeIN4yarp2os11ConstStringESt4pairIKS2_iESt10_Select1stIS5_ESt4lessIS2_ESaIS5_EE8_M_eraseEPSt13_Rb_tree_nodeIS5_E@Base 2.3.66
 _ZTI18ZombieHunterThread@Base 2.3.66
 _ZTIN4yarp2os10ConnectionE@Base 2.3.66
 _ZTIN4yarp2os10NullStreamE@Base 2.3.66
 _ZTIN4yarp2os10PortReaderE@Base 2.3.66
 _ZTIN4yarp2os10PortReportE@Base 2.3.66
 _ZTIN4yarp2os10PortWriterE@Base 2.3.66
 _ZTIN4yarp2os10RateThreadE@Base 2.3.66
 _ZTIN4yarp2os10SearchableE@Base 2.3.66
 _ZTIN4yarp2os11ContactableE@Base 2.3.66
 _ZTIN4yarp2os11InputStreamE@Base 2.3.66
 _ZTIN4yarp2os11ShiftStreamE@Base 2.3.66
 _ZTIN4yarp2os11SizedWriterE@Base 2.3.66
 _ZTIN4yarp2os12ContactablesE@Base 2.3.66
 _ZTIN4yarp2os12ManagedBytesE@Base 2.3.66
 _ZTIN4yarp2os12MessageStackE@Base 2.3.66
 _ZTIN4yarp2os12NetworkClockE@Base 2.3.66
 _ZTIN4yarp2os12OutputStreamE@Base 2.3.66
 _ZTIN4yarp2os12RosNameSpaceE@Base 2.3.66
 _ZTIN4yarp2os12TwoWayStreamE@Base 2.3.66
 _ZTIN4yarp2os13InputProtocolE@Base 2.3.66
 _ZTIN4yarp2os13MonitorObjectE@Base 2.3.66
 _ZTIN4yarp2os13SearchMonitorE@Base 2.3.66
 _ZTIN4yarp2os13SharedLibraryE@Base 2.3.66
 _ZTIN4yarp2os13YarpNameSpaceE@Base 2.3.66
 _ZTIN4yarp2os14DummyConnectorE@Base 2.3.66
 _ZTIN4yarp2os14MultiNameSpaceE@Base 2.3.66
 _ZTIN4yarp2os14NullConnectionE@Base 2.3.66
 _ZTIN4yarp2os14OutputProtocolE@Base 2.3.66
 _ZTIN4yarp2os14ResourceFinderE@Base 2.3.66
 _ZTIN4yarp2os15AbstractCarrierE@Base 2.3.66
 _ZTIN4yarp2os15ConnectionStateE@Base 2.3.66
 _ZTIN4yarp2os16ConnectionReaderE@Base 2.3.66
 _ZTIN4yarp2os16ConnectionWriterE@Base 2.3.66
 _ZTIN4yarp2os16ModifyingCarrierE@Base 2.3.66
 _ZTIN4yarp2os17PortReaderCreatorE@Base 2.3.66
 _ZTIN4yarp2os17RateThreadWrapperE@Base 2.3.66
 _ZTIN4yarp2os18YarpPluginSelectorE@Base 2.3.66
 _ZTIN4yarp2os19AbstractContactableE@Base 2.3.66
 _ZTIN4yarp2os20NullConnectionReaderE@Base 2.3.66
 _ZTIN4yarp2os20NullConnectionWriterE@Base 2.3.66
 _ZTIN4yarp2os20PortWriterBufferBaseE@Base 2.3.66
 _ZTIN4yarp2os20SharedLibraryFactoryE@Base 2.3.66
 _ZTIN4yarp2os20SystemInfoSerializerE@Base 2.3.66
 _ZTIN4yarp2os21UnbufferedContactableE@Base 2.3.66
 _ZTIN4yarp2os3LogE@Base 2.3.66
 _ZTIN4yarp2os3idl12WirePortableE@Base 2.3.66
 _ZTIN4yarp2os4FaceE@Base 2.3.66
 _ZTIN4yarp2os4NodeE@Base 2.3.66
 _ZTIN4yarp2os4PortE@Base 2.3.66
 _ZTIN4yarp2os4TypeE@Base 2.3.66
 _ZTIN4yarp2os4impl10BottleImplE@Base 2.3.66
 _ZTIN4yarp2os4impl10NameClientE@Base 2.3.66
 _ZTIN4yarp2os4impl10NameServer10HostRecordE@Base 2.3.66
 _ZTIN4yarp2os4impl10NameServer11McastRecordE@Base 2.3.66
 _ZTIN4yarp2os4impl10NameServer14ReusableRecordIiEE@Base 2.3.66
 _ZTIN4yarp2os4impl10NameServer20DisposableNameRecordE@Base 2.3.66
 _ZTIN4yarp2os4impl10NameServerE@Base 2.3.66
 _ZTIN4yarp2os4impl10StoreInt64E@Base 2.3.66
 _ZTIN4yarp2os4impl10StoreVocabE@Base 2.3.66
 _ZTIN4yarp2os4impl10ThreadImplE@Base 2.3.66
 _ZTIN4yarp2os4impl11PortCommandE@Base 2.3.66
 _ZTIN4yarp2os4impl11PortManagerE@Base 2.3.66
 _ZTIN4yarp2os4impl11StoreDoubleE@Base 2.3.66
 _ZTIN4yarp2os4impl11StoreStringE@Base 2.3.66
 _ZTIN4yarp2os4impl13SemaphoreImplE@Base 2.3.66
 _ZTIN4yarp2os4impl14NameServerStubE@Base 2.3.66
 _ZTIN4yarp2os4impl16PortDataModifierE@Base 2.3.66
 _ZTIN4yarp2os4impl17DgramTwoWayStreamE@Base 2.3.66
 _ZTIN4yarp2os4impl17RecursiveLockImplE@Base 2.3.66
 _ZTIN4yarp2os4impl18FallbackNameClientE@Base 2.3.66
 _ZTIN4yarp2os4impl18FallbackNameServerE@Base 2.3.66
 _ZTIN4yarp2os4impl20PortReaderBufferBaseE@Base 2.3.66
 _ZTIN4yarp2os4impl22StreamConnectionReaderE@Base 2.3.66
 _ZTIN4yarp2os4impl24BufferedConnectionWriterE@Base 2.3.66
 _ZTIN4yarp2os4impl27PortReaderBufferBaseCreatorE@Base 2.3.66
 _ZTIN4yarp2os4impl6LoggerE@Base 2.3.66
 _ZTIN4yarp2os4impl7TcpFaceE@Base 2.3.66
 _ZTIN4yarp2os4impl8AuthHMACE@Base 2.3.66
 _ZTIN4yarp2os4impl8CarriersE@Base 2.3.66
 _ZTIN4yarp2os4impl8PortCoreE@Base 2.3.66
 _ZTIN4yarp2os4impl8ProtocolE@Base 2.3.66
 _ZTIN4yarp2os4impl8StorableE@Base 2.3.66
 _ZTIN4yarp2os4impl8StoreIntE@Base 2.3.66
 _ZTIN4yarp2os4impl8UnitTestE@Base 2.3.66
 _ZTIN4yarp2os4impl9StoreBlobE@Base 2.3.66
 _ZTIN4yarp2os4impl9StoreDictE@Base 2.3.66
 _ZTIN4yarp2os4impl9StoreListE@Base 2.3.66
 _ZTIN4yarp2os4impl9StoreNullE@Base 2.3.66
 _ZTIN4yarp2os5ClockE@Base 2.3.66
 _ZTIN4yarp2os5EventE@Base 2.3.66
 _ZTIN4yarp2os5NodesE@Base 2.3.66
 _ZTIN4yarp2os5StampE@Base 2.3.66
 _ZTIN4yarp2os5ValueE@Base 2.3.66
 _ZTIN4yarp2os6BottleE@Base 2.3.66
 _ZTIN4yarp2os6ModuleE@Base 2.3.66
 _ZTIN4yarp2os6ThingsE@Base 2.3.66
 _ZTIN4yarp2os6ThreadE@Base 2.3.66
 _ZTIN4yarp2os7CarrierE@Base 2.3.66
 _ZTIN4yarp2os7ContactE@Base 2.3.66
 _ZTIN4yarp2os7IConfigE@Base 2.3.66
 _ZTIN4yarp2os7StampedE@Base 2.3.66
 _ZTIN4yarp2os8PortableE@Base 2.3.66
 _ZTIN4yarp2os8PropertyE@Base 2.3.66
 _ZTIN4yarp2os8RFModuleE@Base 2.3.66
 _ZTIN4yarp2os8RunnableE@Base 2.3.66
 _ZTIN4yarp2os8TermineeE@Base 2.3.66
 _ZTIN4yarp2os9NameSpaceE@Base 2.3.66
 _ZTIN4yarp2os9NameStoreE@Base 2.3.66
 _ZTIN4yarp2os9RpcClientE@Base 2.3.66
 _ZTIN4yarp2os9RpcServerE@Base 2.3.66
 _ZTIN4yarp2os9SemaphoreE@Base 2.3.66
 _ZTS18ZombieHunterThread@Base 2.3.66
 _ZTSN4yarp2os10ConnectionE@Base 2.3.66
 _ZTSN4yarp2os10NullStreamE@Base 2.3.66
 _ZTSN4yarp2os10PortReaderE@Base 2.3.66
 _ZTSN4yarp2os10PortReportE@Base 2.3.66
 _ZTSN4yarp2os10PortWriterE@Base 2.3.66
 _ZTSN4yarp2os10RateThreadE@Base 2.3.66
 _ZTSN4yarp2os10SearchableE@Base 2.3.66
 _ZTSN4yarp2os11ContactableE@Base 2.3.66
 _ZTSN4yarp2os11InputStreamE@Base 2.3.66
 _ZTSN4yarp2os11ShiftStreamE@Base 2.3.66
 _ZTSN4yarp2os11SizedWriterE@Base 2.3.66
 _ZTSN4yarp2os12ContactablesE@Base 2.3.66
 _ZTSN4yarp2os12ManagedBytesE@Base 2.3.66
 _ZTSN4yarp2os12MessageStackE@Base 2.3.66
 _ZTSN4yarp2os12NetworkClockE@Base 2.3.66
 _ZTSN4yarp2os12OutputStreamE@Base 2.3.66
 _ZTSN4yarp2os12RosNameSpaceE@Base 2.3.66
 _ZTSN4yarp2os12TwoWayStreamE@Base 2.3.66
 _ZTSN4yarp2os13InputProtocolE@Base 2.3.66
 _ZTSN4yarp2os13MonitorObjectE@Base 2.3.66
 _ZTSN4yarp2os13SearchMonitorE@Base 2.3.66
 _ZTSN4yarp2os13SharedLibraryE@Base 2.3.66
 _ZTSN4yarp2os13YarpNameSpaceE@Base 2.3.66
 _ZTSN4yarp2os14DummyConnectorE@Base 2.3.66
 _ZTSN4yarp2os14MultiNameSpaceE@Base 2.3.66
 _ZTSN4yarp2os14NullConnectionE@Base 2.3.66
 _ZTSN4yarp2os14OutputProtocolE@Base 2.3.66
 _ZTSN4yarp2os14ResourceFinderE@Base 2.3.66
 _ZTSN4yarp2os15AbstractCarrierE@Base 2.3.66
 _ZTSN4yarp2os15ConnectionStateE@Base 2.3.66
 _ZTSN4yarp2os16ConnectionReaderE@Base 2.3.66
 _ZTSN4yarp2os16ConnectionWriterE@Base 2.3.66
 _ZTSN4yarp2os16ModifyingCarrierE@Base 2.3.66
 _ZTSN4yarp2os17PortReaderCreatorE@Base 2.3.66
 _ZTSN4yarp2os17RateThreadWrapperE@Base 2.3.66
 _ZTSN4yarp2os18YarpPluginSelectorE@Base 2.3.66
 _ZTSN4yarp2os19AbstractContactableE@Base 2.3.66
 _ZTSN4yarp2os20NullConnectionReaderE@Base 2.3.66
 _ZTSN4yarp2os20NullConnectionWriterE@Base 2.3.66
 _ZTSN4yarp2os20PortWriterBufferBaseE@Base 2.3.66
 _ZTSN4yarp2os20SharedLibraryFactoryE@Base 2.3.66
 _ZTSN4yarp2os20SystemInfoSerializerE@Base 2.3.66
 _ZTSN4yarp2os21UnbufferedContactableE@Base 2.3.66
 _ZTSN4yarp2os3LogE@Base 2.3.66
 _ZTSN4yarp2os3idl12WirePortableE@Base 2.3.66
 _ZTSN4yarp2os4FaceE@Base 2.3.66
 _ZTSN4yarp2os4NodeE@Base 2.3.66
 _ZTSN4yarp2os4PortE@Base 2.3.66
 _ZTSN4yarp2os4TypeE@Base 2.3.66
 _ZTSN4yarp2os4impl10BottleImplE@Base 2.3.66
 _ZTSN4yarp2os4impl10NameClientE@Base 2.3.66
 _ZTSN4yarp2os4impl10NameServer10HostRecordE@Base 2.3.66
 _ZTSN4yarp2os4impl10NameServer11McastRecordE@Base 2.3.66
 _ZTSN4yarp2os4impl10NameServer14ReusableRecordIiEE@Base 2.3.66
 _ZTSN4yarp2os4impl10NameServer20DisposableNameRecordE@Base 2.3.66
 _ZTSN4yarp2os4impl10NameServerE@Base 2.3.66
 _ZTSN4yarp2os4impl10StoreInt64E@Base 2.3.66
 _ZTSN4yarp2os4impl10StoreVocabE@Base 2.3.66
 _ZTSN4yarp2os4impl10ThreadImplE@Base 2.3.66
 _ZTSN4yarp2os4impl11PortCommandE@Base 2.3.66
 _ZTSN4yarp2os4impl11PortManagerE@Base 2.3.66
 _ZTSN4yarp2os4impl11StoreDoubleE@Base 2.3.66
 _ZTSN4yarp2os4impl11StoreStringE@Base 2.3.66
 _ZTSN4yarp2os4impl13SemaphoreImplE@Base 2.3.66
 _ZTSN4yarp2os4impl14NameServerStubE@Base 2.3.66
 _ZTSN4yarp2os4impl16PortDataModifierE@Base 2.3.66
 _ZTSN4yarp2os4impl17DgramTwoWayStreamE@Base 2.3.66
 _ZTSN4yarp2os4impl17RecursiveLockImplE@Base 2.3.66
 _ZTSN4yarp2os4impl18FallbackNameClientE@Base 2.3.66
 _ZTSN4yarp2os4impl18FallbackNameServerE@Base 2.3.66
 _ZTSN4yarp2os4impl20PortReaderBufferBaseE@Base 2.3.66
 _ZTSN4yarp2os4impl22StreamConnectionReaderE@Base 2.3.66
 _ZTSN4yarp2os4impl24BufferedConnectionWriterE@Base 2.3.66
 _ZTSN4yarp2os4impl27PortReaderBufferBaseCreatorE@Base 2.3.66
 _ZTSN4yarp2os4impl6LoggerE@Base 2.3.66
 _ZTSN4yarp2os4impl7TcpFaceE@Base 2.3.66
 _ZTSN4yarp2os4impl8AuthHMACE@Base 2.3.66
 _ZTSN4yarp2os4impl8CarriersE@Base 2.3.66
 _ZTSN4yarp2os4impl8PortCoreE@Base 2.3.66
 _ZTSN4yarp2os4impl8ProtocolE@Base 2.3.66
 _ZTSN4yarp2os4impl8StorableE@Base 2.3.66
 _ZTSN4yarp2os4impl8StoreIntE@Base 2.3.66
 _ZTSN4yarp2os4impl8UnitTestE@Base 2.3.66
 _ZTSN4yarp2os4impl9StoreBlobE@Base 2.3.66
 _ZTSN4yarp2os4impl9StoreDictE@Base 2.3.66
 _ZTSN4yarp2os4impl9StoreListE@Base 2.3.66
 _ZTSN4yarp2os4impl9StoreNullE@Base 2.3.66
 _ZTSN4yarp2os5ClockE@Base 2.3.66
 _ZTSN4yarp2os5EventE@Base 2.3.66
 _ZTSN4yarp2os5NodesE@Base 2.3.66
 _ZTSN4yarp2os5StampE@Base 2.3.66
 _ZTSN4yarp2os5ValueE@Base 2.3.66
 _ZTSN4yarp2os6BottleE@Base 2.3.66
 _ZTSN4yarp2os6ModuleE@Base 2.3.66
 _ZTSN4yarp2os6ThingsE@Base 2.3.66
 _ZTSN4yarp2os6ThreadE@Base 2.3.66
 _ZTSN4yarp2os7CarrierE@Base 2.3.66
 _ZTSN4yarp2os7ContactE@Base 2.3.66
 _ZTSN4yarp2os7IConfigE@Base 2.3.66
 _ZTSN4yarp2os7StampedE@Base 2.3.66
 _ZTSN4yarp2os8PortableE@Base 2.3.66
 _ZTSN4yarp2os8PropertyE@Base 2.3.66
 _ZTSN4yarp2os8RFModuleE@Base 2.3.66
 _ZTSN4yarp2os8RunnableE@Base 2.3.66
 _ZTSN4yarp2os8TermineeE@Base 2.3.66
 _ZTSN4yarp2os9NameSpaceE@Base 2.3.66
 _ZTSN4yarp2os9NameStoreE@Base 2.3.66
 _ZTSN4yarp2os9RpcClientE@Base 2.3.66
 _ZTSN4yarp2os9RpcServerE@Base 2.3.66
 _ZTSN4yarp2os9SemaphoreE@Base 2.3.66
 _ZTV18ZombieHunterThread@Base 2.3.66
 _ZTVN4yarp2os10NullStreamE@Base 2.3.66
 _ZTVN4yarp2os10PortReaderE@Base 2.3.66
 _ZTVN4yarp2os10PortReportE@Base 2.3.66
 _ZTVN4yarp2os10PortWriterE@Base 2.3.66
 _ZTVN4yarp2os10RateThreadE@Base 2.3.66
 _ZTVN4yarp2os10SearchableE@Base 2.3.66
 _ZTVN4yarp2os11ContactableE@Base 2.3.66
 _ZTVN4yarp2os11ShiftStreamE@Base 2.3.66
 _ZTVN4yarp2os11SizedWriterE@Base 2.3.66
 _ZTVN4yarp2os12ManagedBytesE@Base 2.3.66
 _ZTVN4yarp2os12MessageStackE@Base 2.3.66
 _ZTVN4yarp2os12NetworkClockE@Base 2.3.66
 _ZTVN4yarp2os12RosNameSpaceE@Base 2.3.66
 _ZTVN4yarp2os12TwoWayStreamE@Base 2.3.66
 _ZTVN4yarp2os13MonitorObjectE@Base 2.3.66
 _ZTVN4yarp2os13SearchMonitorE@Base 2.3.66
 _ZTVN4yarp2os13SharedLibraryE@Base 2.3.66
 _ZTVN4yarp2os13YarpNameSpaceE@Base 2.3.66
 _ZTVN4yarp2os14DummyConnectorE@Base 2.3.66
 _ZTVN4yarp2os14MultiNameSpaceE@Base 2.3.66
 _ZTVN4yarp2os14NullConnectionE@Base 2.3.66
 _ZTVN4yarp2os14ResourceFinderE@Base 2.3.66
 _ZTVN4yarp2os15AbstractCarrierE@Base 2.3.66
 _ZTVN4yarp2os16ConnectionReaderE@Base 2.3.66
 _ZTVN4yarp2os16ConnectionWriterE@Base 2.3.66
 _ZTVN4yarp2os16ModifyingCarrierE@Base 2.3.66
 _ZTVN4yarp2os17PortReaderCreatorE@Base 2.3.66
 _ZTVN4yarp2os17RateThreadWrapperE@Base 2.3.66
 _ZTVN4yarp2os18YarpPluginSelectorE@Base 2.3.66
 _ZTVN4yarp2os20NullConnectionReaderE@Base 2.3.66
 _ZTVN4yarp2os20NullConnectionWriterE@Base 2.3.66
 _ZTVN4yarp2os20PortWriterBufferBaseE@Base 2.3.66
 _ZTVN4yarp2os20SharedLibraryFactoryE@Base 2.3.66
 _ZTVN4yarp2os20SystemInfoSerializerE@Base 2.3.66
 _ZTVN4yarp2os21UnbufferedContactableE@Base 2.3.66
 _ZTVN4yarp2os3LogE@Base 2.3.66
 _ZTVN4yarp2os3idl12WirePortableE@Base 2.3.66
 _ZTVN4yarp2os4NodeE@Base 2.3.66
 _ZTVN4yarp2os4PortE@Base 2.3.66
 _ZTVN4yarp2os4TypeE@Base 2.3.66
 _ZTVN4yarp2os4impl10BottleImplE@Base 2.3.66
 _ZTVN4yarp2os4impl10NameClientE@Base 2.3.66
 _ZTVN4yarp2os4impl10NameServer10HostRecordE@Base 2.3.66
 _ZTVN4yarp2os4impl10NameServer11McastRecordE@Base 2.3.66
 _ZTVN4yarp2os4impl10NameServer14ReusableRecordIiEE@Base 2.3.66
 _ZTVN4yarp2os4impl10NameServer20DisposableNameRecordE@Base 2.3.66
 _ZTVN4yarp2os4impl10NameServerE@Base 2.3.66
 _ZTVN4yarp2os4impl10StoreInt64E@Base 2.3.66
 _ZTVN4yarp2os4impl10StoreVocabE@Base 2.3.66
 _ZTVN4yarp2os4impl10ThreadImplE@Base 2.3.66
 _ZTVN4yarp2os4impl11PortCommandE@Base 2.3.66
 _ZTVN4yarp2os4impl11PortManagerE@Base 2.3.66
 _ZTVN4yarp2os4impl11StoreDoubleE@Base 2.3.66
 _ZTVN4yarp2os4impl11StoreStringE@Base 2.3.66
 _ZTVN4yarp2os4impl13SemaphoreImplE@Base 2.3.66
 _ZTVN4yarp2os4impl16PortDataModifierE@Base 2.3.66
 _ZTVN4yarp2os4impl17DgramTwoWayStreamE@Base 2.3.66
 _ZTVN4yarp2os4impl17RecursiveLockImplE@Base 2.3.66
 _ZTVN4yarp2os4impl18FallbackNameClientE@Base 2.3.66
 _ZTVN4yarp2os4impl18FallbackNameServerE@Base 2.3.66
 _ZTVN4yarp2os4impl20PortReaderBufferBaseE@Base 2.3.66
 _ZTVN4yarp2os4impl22StreamConnectionReaderE@Base 2.3.66
 _ZTVN4yarp2os4impl24BufferedConnectionWriterE@Base 2.3.66
 _ZTVN4yarp2os4impl27PortReaderBufferBaseCreatorE@Base 2.3.66
 _ZTVN4yarp2os4impl6LoggerE@Base 2.3.66
 _ZTVN4yarp2os4impl7TcpFaceE@Base 2.3.66
 _ZTVN4yarp2os4impl8AuthHMACE@Base 2.3.66
 _ZTVN4yarp2os4impl8CarriersE@Base 2.3.66
 _ZTVN4yarp2os4impl8PortCoreE@Base 2.3.66
 _ZTVN4yarp2os4impl8ProtocolE@Base 2.3.66
 _ZTVN4yarp2os4impl8StorableE@Base 2.3.66
 _ZTVN4yarp2os4impl8StoreIntE@Base 2.3.66
 _ZTVN4yarp2os4impl8UnitTestE@Base 2.3.66
 _ZTVN4yarp2os4impl9StoreBlobE@Base 2.3.66
 _ZTVN4yarp2os4impl9StoreDictE@Base 2.3.66
 _ZTVN4yarp2os4impl9StoreListE@Base 2.3.66
 _ZTVN4yarp2os4impl9StoreNullE@Base 2.3.66
 _ZTVN4yarp2os5EventE@Base 2.3.66
 _ZTVN4yarp2os5NodesE@Base 2.3.66
 _ZTVN4yarp2os5StampE@Base 2.3.66
 _ZTVN4yarp2os5ValueE@Base 2.3.66
 _ZTVN4yarp2os6BottleE@Base 2.3.66
 _ZTVN4yarp2os6ModuleE@Base 2.3.66
 _ZTVN4yarp2os6ThingsE@Base 2.3.66
 _ZTVN4yarp2os6ThreadE@Base 2.3.66
 _ZTVN4yarp2os7CarrierE@Base 2.3.66
 _ZTVN4yarp2os7ContactE@Base 2.3.66
 _ZTVN4yarp2os7IConfigE@Base 2.3.66
 _ZTVN4yarp2os7StampedE@Base 2.3.66
 _ZTVN4yarp2os8PortableE@Base 2.3.66
 _ZTVN4yarp2os8PropertyE@Base 2.3.66
 _ZTVN4yarp2os8RFModuleE@Base 2.3.66
 _ZTVN4yarp2os8RunnableE@Base 2.3.66
 _ZTVN4yarp2os8TermineeE@Base 2.3.66
 _ZTVN4yarp2os9NameSpaceE@Base 2.3.66
 _ZTVN4yarp2os9NameStoreE@Base 2.3.66
 _ZTVN4yarp2os9RpcClientE@Base 2.3.66
 _ZTVN4yarp2os9RpcServerE@Base 2.3.66
 _ZTVN4yarp2os9SemaphoreE@Base 2.3.66
 _ZThn112_N4yarp2os4impl8PortCore10adminBlockERNS0_16ConnectionReaderEPvPNS0_12OutputStreamE@Base 2.3.66
 _ZThn112_N4yarp2os4impl8PortCore10reportUnitEPNS1_12PortCoreUnitEb@Base 2.3.66
 _ZThn112_N4yarp2os4impl8PortCore11removeInputERKNS0_11ConstStringEPvPNS0_12OutputStreamE@Base 2.3.66
 _ZThn112_N4yarp2os4impl8PortCore11setEnvelopeERKNS0_11ConstStringE@Base 2.3.66
 _ZThn112_N4yarp2os4impl8PortCore12removeOutputERKNS0_11ConstStringEPvPNS0_12OutputStreamE@Base 2.3.66
 _ZThn112_N4yarp2os4impl8PortCore6reportERKNS0_8PortInfoE@Base 2.3.66
 _ZThn112_N4yarp2os4impl8PortCore8describeEPvPNS0_12OutputStreamE@Base 2.3.66
 _ZThn112_N4yarp2os4impl8PortCore9addOutputERKNS0_11ConstStringEPvPNS0_12OutputStreamEb@Base 2.3.66
 _ZThn112_N4yarp2os4impl8PortCore9readBlockERNS0_16ConnectionReaderEPvPNS0_12OutputStreamE@Base 2.3.66
 _ZThn112_N4yarp2os4impl8PortCoreD0Ev@Base 2.3.66
 _ZThn112_N4yarp2os4impl8PortCoreD1Ev@Base 2.3.66
 _ZThn160_N4yarp2os4impl8PortCoreD0Ev@Base 2.3.66
 _ZThn160_N4yarp2os4impl8PortCoreD1Ev@Base 2.3.66
 _ZThn16_N4yarp2os10NullStream4isOkEv@Base 2.3.66
 _ZThn16_N4yarp2os10NullStream5closeEv@Base 2.3.66
 _ZThn16_N4yarp2os10NullStream5writeERKNS0_5BytesE@Base 2.3.66
 _ZThn16_N4yarp2os10NullStreamD0Ev@Base 2.3.66
 _ZThn16_N4yarp2os10NullStreamD1Ev@Base 2.3.66
 _ZThn16_N4yarp2os4impl17DgramTwoWayStream16getTypeOfServiceEv@Base 2.3.66
 _ZThn16_N4yarp2os4impl17DgramTwoWayStream16setTypeOfServiceEi@Base 2.3.66
 _ZThn16_N4yarp2os4impl17DgramTwoWayStream4isOkEv@Base 2.3.66
 _ZThn16_N4yarp2os4impl17DgramTwoWayStream5flushEv@Base 2.3.66
 _ZThn16_N4yarp2os4impl17DgramTwoWayStream5writeERKNS0_5BytesE@Base 2.3.66
 _ZThn16_N4yarp2os4impl17DgramTwoWayStreamD0Ev@Base 2.3.66
 _ZThn16_N4yarp2os4impl17DgramTwoWayStreamD1Ev@Base 2.3.66
 _ZThn16_N4yarp2os4impl8Protocol18getSenderSpecifierEv@Base 2.3.66
 _ZThn16_N4yarp2os4impl8Protocol8setRouteERKNS0_5RouteE@Base 2.3.66
 _ZThn16_N4yarp2os4impl8StorableD0Ev@Base 2.3.66
 _ZThn16_N4yarp2os4impl8StorableD1Ev@Base 2.3.66
 _ZThn16_N4yarp2os5ValueD0Ev@Base 2.3.66
 _ZThn16_N4yarp2os5ValueD1Ev@Base 2.3.66
 _ZThn16_N4yarp2os6BottleD0Ev@Base 2.3.66
 _ZThn16_N4yarp2os6BottleD1Ev@Base 2.3.66
 _ZThn16_NK4yarp2os4impl8Storable4findERKNS0_11ConstStringE@Base 2.3.66
 _ZThn16_NK4yarp2os4impl8Storable5checkERKNS0_11ConstStringE@Base 2.3.66
 _ZThn16_NK4yarp2os4impl8Storable9findGroupERKNS0_11ConstStringE@Base 2.3.66
 _ZThn16_NK4yarp2os5Value4findERKNS0_11ConstStringE@Base 2.3.66
 _ZThn16_NK4yarp2os5Value5checkERKNS0_11ConstStringE@Base 2.3.66
 _ZThn16_NK4yarp2os5Value6isNullEv@Base 2.3.66
 _ZThn16_NK4yarp2os5Value8toStringEv@Base 2.3.66
 _ZThn16_NK4yarp2os5Value9findGroupERKNS0_11ConstStringE@Base 2.3.66
 _ZThn16_NK4yarp2os6Bottle4findERKNS0_11ConstStringE@Base 2.3.66
 _ZThn16_NK4yarp2os6Bottle5checkERKNS0_11ConstStringE@Base 2.3.66
 _ZThn16_NK4yarp2os6Bottle6isNullEv@Base 2.3.66
 _ZThn16_NK4yarp2os6Bottle8toStringEv@Base 2.3.66
 _ZThn16_NK4yarp2os6Bottle9findGroupERKNS0_11ConstStringE@Base 2.3.66
 _ZThn48_N4yarp2os8Property4readERNS0_16ConnectionReaderE@Base 2.3.66
 _ZThn48_N4yarp2os8Property5writeERNS0_16ConnectionWriterE@Base 2.3.66
 _ZThn48_N4yarp2os8PropertyD0Ev@Base 2.3.66
 _ZThn48_N4yarp2os8PropertyD1Ev@Base 2.3.66
 _ZThn56_N4yarp2os8Property5writeERNS0_16ConnectionWriterE@Base 2.3.66
 _ZThn56_N4yarp2os8PropertyD0Ev@Base 2.3.66
 _ZThn56_N4yarp2os8PropertyD1Ev@Base 2.3.66
 _ZThn8_N4yarp2os10NullStream4isOkEv@Base 2.3.66
 _ZThn8_N4yarp2os10NullStream4readERKNS0_5BytesE@Base 2.3.66
 _ZThn8_N4yarp2os10NullStream5closeEv@Base 2.3.66
 _ZThn8_N4yarp2os10NullStreamD0Ev@Base 2.3.66
 _ZThn8_N4yarp2os10NullStreamD1Ev@Base 2.3.66
 _ZThn8_N4yarp2os12ManagedBytes5writeERNS0_16ConnectionWriterE@Base 2.3.66
 _ZThn8_N4yarp2os12ManagedBytesD0Ev@Base 2.3.66
 _ZThn8_N4yarp2os12ManagedBytesD1Ev@Base 2.3.66
 _ZThn8_N4yarp2os12NetworkClock4readERNS0_16ConnectionReaderE@Base 2.3.66
 _ZThn8_N4yarp2os12NetworkClockD0Ev@Base 2.3.66
 _ZThn8_N4yarp2os12NetworkClockD1Ev@Base 2.3.66
 _ZThn8_N4yarp2os12RosNameSpace3runEv@Base 2.3.66
 _ZThn8_N4yarp2os12RosNameSpaceD0Ev@Base 2.3.66
 _ZThn8_N4yarp2os12RosNameSpaceD1Ev@Base 2.3.66
 _ZThn8_N4yarp2os20SystemInfoSerializer5writeERNS0_16ConnectionWriterE@Base 2.3.66
 _ZThn8_N4yarp2os20SystemInfoSerializerD0Ev@Base 2.3.66
 _ZThn8_N4yarp2os20SystemInfoSerializerD1Ev@Base 2.3.66
 _ZThn8_N4yarp2os4impl10BottleImpl14onCommencementEv@Base 2.3.66
 _ZThn8_N4yarp2os4impl10BottleImpl5writeERNS0_16ConnectionWriterE@Base 2.3.66
 _ZThn8_N4yarp2os4impl10BottleImplD0Ev@Base 2.3.66
 _ZThn8_N4yarp2os4impl10BottleImplD1Ev@Base 2.3.66
 _ZThn8_N4yarp2os4impl11PortCommand5writeERNS0_16ConnectionWriterE@Base 2.3.66
 _ZThn8_N4yarp2os4impl17DgramTwoWayStream4isOkEv@Base 2.3.66
 _ZThn8_N4yarp2os4impl17DgramTwoWayStream4readERKNS0_5BytesE@Base 2.3.66
 _ZThn8_N4yarp2os4impl17DgramTwoWayStream9interruptEv@Base 2.3.66
 _ZThn8_N4yarp2os4impl17DgramTwoWayStreamD0Ev@Base 2.3.66
 _ZThn8_N4yarp2os4impl17DgramTwoWayStreamD1Ev@Base 2.3.66
 _ZThn8_N4yarp2os4impl24BufferedConnectionWriter5writeERNS0_12OutputStreamE@Base 2.3.66
 _ZThn8_N4yarp2os4impl8Protocol4openERKNS0_11ConstStringE@Base 2.3.66
 _ZThn8_N4yarp2os4impl8Protocol9beginReadEv@Base 2.3.66
 _ZThn8_N4yarp2os4impl8Protocol9interruptEv@Base 2.3.66
 _ZThn8_N4yarp2os4impl8Storable5writeERNS0_16ConnectionWriterE@Base 2.3.66
 _ZThn8_N4yarp2os4impl8StorableD0Ev@Base 2.3.66
 _ZThn8_N4yarp2os4impl8StorableD1Ev@Base 2.3.66
 _ZThn8_N4yarp2os5Stamp5writeERNS0_16ConnectionWriterE@Base 2.3.66
 _ZThn8_N4yarp2os5Value5writeERNS0_16ConnectionWriterE@Base 2.3.66
 _ZThn8_N4yarp2os5ValueD0Ev@Base 2.3.66
 _ZThn8_N4yarp2os5ValueD1Ev@Base 2.3.66
 _ZThn8_N4yarp2os6Bottle14onCommencementEv@Base 2.3.66
 _ZThn8_N4yarp2os6Bottle5writeERNS0_16ConnectionWriterE@Base 2.3.66
 _ZThn8_N4yarp2os6BottleD0Ev@Base 2.3.66
 _ZThn8_N4yarp2os6BottleD1Ev@Base 2.3.66
 hmac_sha224@Base 2.3.66
 hmac_sha224_final@Base 2.3.66
 hmac_sha224_init@Base 2.3.66
 hmac_sha224_reinit@Base 2.3.66
 hmac_sha224_update@Base 2.3.66
 hmac_sha256@Base 2.3.66
 hmac_sha256_final@Base 2.3.66
 hmac_sha256_init@Base 2.3.66
 hmac_sha256_reinit@Base 2.3.66
 hmac_sha256_update@Base 2.3.66
 hmac_sha384@Base 2.3.66
 hmac_sha384_final@Base 2.3.66
 hmac_sha384_init@Base 2.3.66
 hmac_sha384_reinit@Base 2.3.66
 hmac_sha384_update@Base 2.3.66
 hmac_sha512@Base 2.3.66
 hmac_sha512_final@Base 2.3.66
 hmac_sha512_init@Base 2.3.66
 hmac_sha512_reinit@Base 2.3.66
 hmac_sha512_update@Base 2.3.66
 sha224@Base 2.3.66
 sha224_final@Base 2.3.66
 sha224_h0@Base 2.3.66
 sha224_init@Base 2.3.66
 sha224_update@Base 2.3.66
 sha256@Base 2.3.66
 sha256_final@Base 2.3.66
 sha256_h0@Base 2.3.66
 sha256_init@Base 2.3.66
 sha256_k@Base 2.3.66
 sha256_transf@Base 2.3.66
 sha256_update@Base 2.3.66
 sha384@Base 2.3.66
 sha384_final@Base 2.3.66
 sha384_h0@Base 2.3.66
 sha384_init@Base 2.3.66
 sha384_update@Base 2.3.66
 sha512@Base 2.3.66
 sha512_final@Base 2.3.66
 sha512_h0@Base 2.3.66
 sha512_init@Base 2.3.66
 sha512_k@Base 2.3.66
 sha512_transf@Base 2.3.66
 sha512_update@Base 2.3.66
libYARP_init.so.1 libyarp-os1 #MINVER#
 _ZN4yarp2os7Network4finiEv@Base 2.3.66
 _ZN4yarp2os7Network4initEv@Base 2.3.66
 _ZN4yarp2os7NetworkC1Ev@Base 2.3.66
 _ZN4yarp2os7NetworkC2Ev@Base 2.3.66
 _ZN4yarp2os7NetworkD0Ev@Base 2.3.66
 _ZN4yarp2os7NetworkD1Ev@Base 2.3.66
 _ZN4yarp2os7NetworkD2Ev@Base 2.3.66
 _ZTIN4yarp2os11NetworkBaseE@Base 2.3.66
 _ZTIN4yarp2os7NetworkE@Base 2.3.66
 _ZTSN4yarp2os11NetworkBaseE@Base 2.3.66
 _ZTSN4yarp2os7NetworkE@Base 2.3.66
 _ZTVN4yarp2os7NetworkE@Base 2.3.66
